

Microchip MPLAB XC8 Assembler V2.10 build 88905656 
                                                                                               Wed Aug 28 15:47:04 2019

Microchip MPLAB XC8 C Compiler v2.10 (Free license) build 20190730164152 Og1 
     1                           	processor	16LF1827
     2                           	opt	pw 120
     3                           	opt	flic
     4                           	psect	idataBANK0,global,class=CODE,delta=2
     5                           	psect	stringtext1,global,class=STRCODE,delta=2
     6                           	psect	nvBANK0,global,class=BANK0,space=1,delta=1
     7                           	psect	cinit,global,class=CODE,merge=1,delta=2
     8                           	psect	bssBANK0,global,class=BANK0,space=1,delta=1
     9                           	psect	dataBANK0,global,class=BANK0,space=1,delta=1
    10                           	psect	cstackCOMMON,global,class=COMMON,space=1,delta=1
    11                           	psect	cstackBANK0,global,class=BANK0,space=1,delta=1
    12                           	psect	maintext,global,class=CODE,merge=1,split=1,delta=2
    13                           	psect	text1,local,class=CODE,merge=1,delta=2
    14                           	psect	text2,local,class=CODE,merge=1,delta=2
    15                           	psect	text3,local,class=CODE,merge=1,delta=2
    16                           	psect	text4,local,class=CODE,merge=1,delta=2
    17                           	psect	text5,local,class=CODE,merge=1,delta=2
    18                           	psect	text6,local,class=CODE,merge=1,delta=2
    19                           	psect	text7,local,class=CODE,merge=1,delta=2
    20                           	psect	text8,local,class=CODE,merge=1,delta=2
    21                           	psect	text9,local,class=CODE,merge=1,delta=2
    22                           	psect	text10,local,class=CODE,merge=1,delta=2
    23                           	psect	text11,local,class=CODE,merge=1,delta=2
    24                           	psect	text12,local,class=CODE,merge=1,delta=2
    25                           	psect	intentry,global,class=CODE,delta=2
    26                           	psect	text14,local,class=CODE,merge=1,delta=2
    27                           	psect	text15,local,class=CODE,merge=1,delta=2
    28                           	psect	text16,local,class=CODE,merge=1,delta=2
    29                           	psect	text17,local,class=CODE,merge=1,delta=2
    30                           	psect	text18,local,class=CODE,merge=1,delta=2
    31                           	psect	text19,local,class=CODE,merge=1,delta=2
    32                           	psect	text20,local,class=CODE,merge=1,delta=2
    33                           	psect	text21,local,class=CODE,merge=1,delta=2
    34                           	psect	text22,local,class=CODE,merge=1,delta=2
    35                           	psect	text23,local,class=CODE,merge=1,delta=2
    36                           	psect	text24,local,class=CODE,merge=1,delta=2
    37                           	psect	text25,local,class=CODE,merge=1,delta=2
    38                           	psect	text26,local,class=CODE,merge=1,delta=2,group=1
    39                           	psect	text27,local,class=CODE,merge=1,delta=2,group=1
    40                           	psect	text28,local,class=CODE,merge=1,delta=2,group=1
    41                           	psect	text29,local,class=CODE,merge=1,delta=2,group=1
    42                           	psect	text30,local,class=CODE,merge=1,delta=2
    43                           	dabs	1,0x7E,2
    44  0000                     
    45                           ; Version 2.10
    46                           ; Generated 31/07/2019 GMT
    47                           ; 
    48                           ; Copyright © 2019, Microchip Technology Inc. and its subsidiaries ("Microchip")
    49                           ; All rights reserved.
    50                           ; 
    51                           ; This software is developed by Microchip Technology Inc. and its subsidiaries ("Microch
      +                          ip").
    52                           ; 
    53                           ; Redistribution and use in source and binary forms, with or without modification, are
    54                           ; permitted provided that the following conditions are met:
    55                           ; 
    56                           ;     1. Redistributions of source code must retain the above copyright notice, this lis
      +                          t of
    57                           ;        conditions and the following disclaimer.
    58                           ; 
    59                           ;     2. Redistributions in binary form must reproduce the above copyright notice, this 
      +                          list
    60                           ;        of conditions and the following disclaimer in the documentation and/or other
    61                           ;        materials provided with the distribution.
    62                           ; 
    63                           ;     3. Microchip's name may not be used to endorse or promote products derived from th
      +                          is
    64                           ;        software without specific prior written permission.
    65                           ; 
    66                           ; THIS SOFTWARE IS PROVIDED BY MICROCHIP "AS IS" AND ANY EXPRESS OR IMPLIED WARRANTIES,
    67                           ; INCLUDING, BUT NOT LIMITED TO, THE IMPLIED WARRANTIES OF MERCHANTABILITY AND FITNESS F
      +                          OR
    68                           ; PURPOSE ARE DISCLAIMED.  IN NO EVENT SHALL MICROCHIP BE LIABLE FOR ANY DIRECT, INDIREC
      +                          T,
    69                           ; INCIDENTAL, SPECIAL, EXEMPLARY, OR CONSEQUENTIAL DAMAGES (INCLUDING BUT NOT LIMITED TO
    70                           ; PROCUREMENT OF SUBSTITUTE GOODS OR SERVICES; LOSS OF USE, DATA OR PROFITS; OR BUSINESS
    71                           ; INTERRUPTION) HOWSOEVER CAUSED AND ON ANY THEORY OF LIABILITY, WHETHER IN CONTRACT, ST
      +                          RICT
    72                           ; LIABILITY, OR TORT (INCLUDING NEGLIGENCE OR OTHERWISE) ARISING IN ANY WAY OUT OF THE U
      +                          SE OF
    73                           ; THIS SOFTWARE, EVEN IF ADVISED OF THE POSSIBILITY OF SUCH DAMAGE.
    74                           ; 
    75                           ; 
    76                           ; Code-generator required, PIC16LF1827 Definitions
    77                           ; 
    78                           ; SFR Addresses
    79  0000                     	;# 
    80  0001                     	;# 
    81  0002                     	;# 
    82  0003                     	;# 
    83  0004                     	;# 
    84  0005                     	;# 
    85  0006                     	;# 
    86  0007                     	;# 
    87  0008                     	;# 
    88  0009                     	;# 
    89  000A                     	;# 
    90  000B                     	;# 
    91  000C                     	;# 
    92  000D                     	;# 
    93  0011                     	;# 
    94  0012                     	;# 
    95  0013                     	;# 
    96  0014                     	;# 
    97  0015                     	;# 
    98  0016                     	;# 
    99  0016                     	;# 
   100  0017                     	;# 
   101  0018                     	;# 
   102  0019                     	;# 
   103  001A                     	;# 
   104  001B                     	;# 
   105  001C                     	;# 
   106  001E                     	;# 
   107  001F                     	;# 
   108  008C                     	;# 
   109  008D                     	;# 
   110  0091                     	;# 
   111  0092                     	;# 
   112  0093                     	;# 
   113  0094                     	;# 
   114  0095                     	;# 
   115  0096                     	;# 
   116  0097                     	;# 
   117  0098                     	;# 
   118  0099                     	;# 
   119  009A                     	;# 
   120  009B                     	;# 
   121  009B                     	;# 
   122  009C                     	;# 
   123  009D                     	;# 
   124  009E                     	;# 
   125  010C                     	;# 
   126  010D                     	;# 
   127  0111                     	;# 
   128  0112                     	;# 
   129  0113                     	;# 
   130  0114                     	;# 
   131  0115                     	;# 
   132  0116                     	;# 
   133  0117                     	;# 
   134  0118                     	;# 
   135  0119                     	;# 
   136  011A                     	;# 
   137  011B                     	;# 
   138  011D                     	;# 
   139  011E                     	;# 
   140  018C                     	;# 
   141  018D                     	;# 
   142  0191                     	;# 
   143  0191                     	;# 
   144  0192                     	;# 
   145  0193                     	;# 
   146  0193                     	;# 
   147  0193                     	;# 
   148  0194                     	;# 
   149  0195                     	;# 
   150  0196                     	;# 
   151  0199                     	;# 
   152  019A                     	;# 
   153  019B                     	;# 
   154  019B                     	;# 
   155  019B                     	;# 
   156  019B                     	;# 
   157  019C                     	;# 
   158  019C                     	;# 
   159  019D                     	;# 
   160  019E                     	;# 
   161  019F                     	;# 
   162  020C                     	;# 
   163  020D                     	;# 
   164  0211                     	;# 
   165  0211                     	;# 
   166  0212                     	;# 
   167  0212                     	;# 
   168  0213                     	;# 
   169  0213                     	;# 
   170  0214                     	;# 
   171  0214                     	;# 
   172  0215                     	;# 
   173  0215                     	;# 
   174  0215                     	;# 
   175  0216                     	;# 
   176  0216                     	;# 
   177  0217                     	;# 
   178  0217                     	;# 
   179  0219                     	;# 
   180  021A                     	;# 
   181  021B                     	;# 
   182  021C                     	;# 
   183  021D                     	;# 
   184  021E                     	;# 
   185  021F                     	;# 
   186  0291                     	;# 
   187  0291                     	;# 
   188  0292                     	;# 
   189  0293                     	;# 
   190  0294                     	;# 
   191  0295                     	;# 
   192  0295                     	;# 
   193  0296                     	;# 
   194  0298                     	;# 
   195  0298                     	;# 
   196  0299                     	;# 
   197  029A                     	;# 
   198  029B                     	;# 
   199  029C                     	;# 
   200  029C                     	;# 
   201  029D                     	;# 
   202  029E                     	;# 
   203  029E                     	;# 
   204  0311                     	;# 
   205  0311                     	;# 
   206  0312                     	;# 
   207  0313                     	;# 
   208  0318                     	;# 
   209  0318                     	;# 
   210  0319                     	;# 
   211  031A                     	;# 
   212  0394                     	;# 
   213  0395                     	;# 
   214  0396                     	;# 
   215  039A                     	;# 
   216  039C                     	;# 
   217  039D                     	;# 
   218  039E                     	;# 
   219  039F                     	;# 
   220  0415                     	;# 
   221  0416                     	;# 
   222  0417                     	;# 
   223  041C                     	;# 
   224  041D                     	;# 
   225  041E                     	;# 
   226  0FE4                     	;# 
   227  0FE5                     	;# 
   228  0FE6                     	;# 
   229  0FE7                     	;# 
   230  0FE8                     	;# 
   231  0FE9                     	;# 
   232  0FEA                     	;# 
   233  0FEB                     	;# 
   234  0FED                     	;# 
   235  0FEE                     	;# 
   236  0FEF                     	;# 
   237  0000                     	;# 
   238  0001                     	;# 
   239  0002                     	;# 
   240  0003                     	;# 
   241  0004                     	;# 
   242  0005                     	;# 
   243  0006                     	;# 
   244  0007                     	;# 
   245  0008                     	;# 
   246  0009                     	;# 
   247  000A                     	;# 
   248  000B                     	;# 
   249  000C                     	;# 
   250  000D                     	;# 
   251  0011                     	;# 
   252  0012                     	;# 
   253  0013                     	;# 
   254  0014                     	;# 
   255  0015                     	;# 
   256  0016                     	;# 
   257  0016                     	;# 
   258  0017                     	;# 
   259  0018                     	;# 
   260  0019                     	;# 
   261  001A                     	;# 
   262  001B                     	;# 
   263  001C                     	;# 
   264  001E                     	;# 
   265  001F                     	;# 
   266  008C                     	;# 
   267  008D                     	;# 
   268  0091                     	;# 
   269  0092                     	;# 
   270  0093                     	;# 
   271  0094                     	;# 
   272  0095                     	;# 
   273  0096                     	;# 
   274  0097                     	;# 
   275  0098                     	;# 
   276  0099                     	;# 
   277  009A                     	;# 
   278  009B                     	;# 
   279  009B                     	;# 
   280  009C                     	;# 
   281  009D                     	;# 
   282  009E                     	;# 
   283  010C                     	;# 
   284  010D                     	;# 
   285  0111                     	;# 
   286  0112                     	;# 
   287  0113                     	;# 
   288  0114                     	;# 
   289  0115                     	;# 
   290  0116                     	;# 
   291  0117                     	;# 
   292  0118                     	;# 
   293  0119                     	;# 
   294  011A                     	;# 
   295  011B                     	;# 
   296  011D                     	;# 
   297  011E                     	;# 
   298  018C                     	;# 
   299  018D                     	;# 
   300  0191                     	;# 
   301  0191                     	;# 
   302  0192                     	;# 
   303  0193                     	;# 
   304  0193                     	;# 
   305  0193                     	;# 
   306  0194                     	;# 
   307  0195                     	;# 
   308  0196                     	;# 
   309  0199                     	;# 
   310  019A                     	;# 
   311  019B                     	;# 
   312  019B                     	;# 
   313  019B                     	;# 
   314  019B                     	;# 
   315  019C                     	;# 
   316  019C                     	;# 
   317  019D                     	;# 
   318  019E                     	;# 
   319  019F                     	;# 
   320  020C                     	;# 
   321  020D                     	;# 
   322  0211                     	;# 
   323  0211                     	;# 
   324  0212                     	;# 
   325  0212                     	;# 
   326  0213                     	;# 
   327  0213                     	;# 
   328  0214                     	;# 
   329  0214                     	;# 
   330  0215                     	;# 
   331  0215                     	;# 
   332  0215                     	;# 
   333  0216                     	;# 
   334  0216                     	;# 
   335  0217                     	;# 
   336  0217                     	;# 
   337  0219                     	;# 
   338  021A                     	;# 
   339  021B                     	;# 
   340  021C                     	;# 
   341  021D                     	;# 
   342  021E                     	;# 
   343  021F                     	;# 
   344  0291                     	;# 
   345  0291                     	;# 
   346  0292                     	;# 
   347  0293                     	;# 
   348  0294                     	;# 
   349  0295                     	;# 
   350  0295                     	;# 
   351  0296                     	;# 
   352  0298                     	;# 
   353  0298                     	;# 
   354  0299                     	;# 
   355  029A                     	;# 
   356  029B                     	;# 
   357  029C                     	;# 
   358  029C                     	;# 
   359  029D                     	;# 
   360  029E                     	;# 
   361  029E                     	;# 
   362  0311                     	;# 
   363  0311                     	;# 
   364  0312                     	;# 
   365  0313                     	;# 
   366  0318                     	;# 
   367  0318                     	;# 
   368  0319                     	;# 
   369  031A                     	;# 
   370  0394                     	;# 
   371  0395                     	;# 
   372  0396                     	;# 
   373  039A                     	;# 
   374  039C                     	;# 
   375  039D                     	;# 
   376  039E                     	;# 
   377  039F                     	;# 
   378  0415                     	;# 
   379  0416                     	;# 
   380  0417                     	;# 
   381  041C                     	;# 
   382  041D                     	;# 
   383  041E                     	;# 
   384  0FE4                     	;# 
   385  0FE5                     	;# 
   386  0FE6                     	;# 
   387  0FE7                     	;# 
   388  0FE8                     	;# 
   389  0FE9                     	;# 
   390  0FEA                     	;# 
   391  0FEB                     	;# 
   392  0FED                     	;# 
   393  0FEE                     	;# 
   394  0FEF                     	;# 
   395  0000                     	;# 
   396  0001                     	;# 
   397  0002                     	;# 
   398  0003                     	;# 
   399  0004                     	;# 
   400  0005                     	;# 
   401  0006                     	;# 
   402  0007                     	;# 
   403  0008                     	;# 
   404  0009                     	;# 
   405  000A                     	;# 
   406  000B                     	;# 
   407  000C                     	;# 
   408  000D                     	;# 
   409  0011                     	;# 
   410  0012                     	;# 
   411  0013                     	;# 
   412  0014                     	;# 
   413  0015                     	;# 
   414  0016                     	;# 
   415  0016                     	;# 
   416  0017                     	;# 
   417  0018                     	;# 
   418  0019                     	;# 
   419  001A                     	;# 
   420  001B                     	;# 
   421  001C                     	;# 
   422  001E                     	;# 
   423  001F                     	;# 
   424  008C                     	;# 
   425  008D                     	;# 
   426  0091                     	;# 
   427  0092                     	;# 
   428  0093                     	;# 
   429  0094                     	;# 
   430  0095                     	;# 
   431  0096                     	;# 
   432  0097                     	;# 
   433  0098                     	;# 
   434  0099                     	;# 
   435  009A                     	;# 
   436  009B                     	;# 
   437  009B                     	;# 
   438  009C                     	;# 
   439  009D                     	;# 
   440  009E                     	;# 
   441  010C                     	;# 
   442  010D                     	;# 
   443  0111                     	;# 
   444  0112                     	;# 
   445  0113                     	;# 
   446  0114                     	;# 
   447  0115                     	;# 
   448  0116                     	;# 
   449  0117                     	;# 
   450  0118                     	;# 
   451  0119                     	;# 
   452  011A                     	;# 
   453  011B                     	;# 
   454  011D                     	;# 
   455  011E                     	;# 
   456  018C                     	;# 
   457  018D                     	;# 
   458  0191                     	;# 
   459  0191                     	;# 
   460  0192                     	;# 
   461  0193                     	;# 
   462  0193                     	;# 
   463  0193                     	;# 
   464  0194                     	;# 
   465  0195                     	;# 
   466  0196                     	;# 
   467  0199                     	;# 
   468  019A                     	;# 
   469  019B                     	;# 
   470  019B                     	;# 
   471  019B                     	;# 
   472  019B                     	;# 
   473  019C                     	;# 
   474  019C                     	;# 
   475  019D                     	;# 
   476  019E                     	;# 
   477  019F                     	;# 
   478  020C                     	;# 
   479  020D                     	;# 
   480  0211                     	;# 
   481  0211                     	;# 
   482  0212                     	;# 
   483  0212                     	;# 
   484  0213                     	;# 
   485  0213                     	;# 
   486  0214                     	;# 
   487  0214                     	;# 
   488  0215                     	;# 
   489  0215                     	;# 
   490  0215                     	;# 
   491  0216                     	;# 
   492  0216                     	;# 
   493  0217                     	;# 
   494  0217                     	;# 
   495  0219                     	;# 
   496  021A                     	;# 
   497  021B                     	;# 
   498  021C                     	;# 
   499  021D                     	;# 
   500  021E                     	;# 
   501  021F                     	;# 
   502  0291                     	;# 
   503  0291                     	;# 
   504  0292                     	;# 
   505  0293                     	;# 
   506  0294                     	;# 
   507  0295                     	;# 
   508  0295                     	;# 
   509  0296                     	;# 
   510  0298                     	;# 
   511  0298                     	;# 
   512  0299                     	;# 
   513  029A                     	;# 
   514  029B                     	;# 
   515  029C                     	;# 
   516  029C                     	;# 
   517  029D                     	;# 
   518  029E                     	;# 
   519  029E                     	;# 
   520  0311                     	;# 
   521  0311                     	;# 
   522  0312                     	;# 
   523  0313                     	;# 
   524  0318                     	;# 
   525  0318                     	;# 
   526  0319                     	;# 
   527  031A                     	;# 
   528  0394                     	;# 
   529  0395                     	;# 
   530  0396                     	;# 
   531  039A                     	;# 
   532  039C                     	;# 
   533  039D                     	;# 
   534  039E                     	;# 
   535  039F                     	;# 
   536  0415                     	;# 
   537  0416                     	;# 
   538  0417                     	;# 
   539  041C                     	;# 
   540  041D                     	;# 
   541  041E                     	;# 
   542  0FE4                     	;# 
   543  0FE5                     	;# 
   544  0FE6                     	;# 
   545  0FE7                     	;# 
   546  0FE8                     	;# 
   547  0FE9                     	;# 
   548  0FEA                     	;# 
   549  0FEB                     	;# 
   550  0FED                     	;# 
   551  0FEE                     	;# 
   552  0FEF                     	;# 
   553  0000                     	;# 
   554  0001                     	;# 
   555  0002                     	;# 
   556  0003                     	;# 
   557  0004                     	;# 
   558  0005                     	;# 
   559  0006                     	;# 
   560  0007                     	;# 
   561  0008                     	;# 
   562  0009                     	;# 
   563  000A                     	;# 
   564  000B                     	;# 
   565  000C                     	;# 
   566  000D                     	;# 
   567  0011                     	;# 
   568  0012                     	;# 
   569  0013                     	;# 
   570  0014                     	;# 
   571  0015                     	;# 
   572  0016                     	;# 
   573  0016                     	;# 
   574  0017                     	;# 
   575  0018                     	;# 
   576  0019                     	;# 
   577  001A                     	;# 
   578  001B                     	;# 
   579  001C                     	;# 
   580  001E                     	;# 
   581  001F                     	;# 
   582  008C                     	;# 
   583  008D                     	;# 
   584  0091                     	;# 
   585  0092                     	;# 
   586  0093                     	;# 
   587  0094                     	;# 
   588  0095                     	;# 
   589  0096                     	;# 
   590  0097                     	;# 
   591  0098                     	;# 
   592  0099                     	;# 
   593  009A                     	;# 
   594  009B                     	;# 
   595  009B                     	;# 
   596  009C                     	;# 
   597  009D                     	;# 
   598  009E                     	;# 
   599  010C                     	;# 
   600  010D                     	;# 
   601  0111                     	;# 
   602  0112                     	;# 
   603  0113                     	;# 
   604  0114                     	;# 
   605  0115                     	;# 
   606  0116                     	;# 
   607  0117                     	;# 
   608  0118                     	;# 
   609  0119                     	;# 
   610  011A                     	;# 
   611  011B                     	;# 
   612  011D                     	;# 
   613  011E                     	;# 
   614  018C                     	;# 
   615  018D                     	;# 
   616  0191                     	;# 
   617  0191                     	;# 
   618  0192                     	;# 
   619  0193                     	;# 
   620  0193                     	;# 
   621  0193                     	;# 
   622  0194                     	;# 
   623  0195                     	;# 
   624  0196                     	;# 
   625  0199                     	;# 
   626  019A                     	;# 
   627  019B                     	;# 
   628  019B                     	;# 
   629  019B                     	;# 
   630  019B                     	;# 
   631  019C                     	;# 
   632  019C                     	;# 
   633  019D                     	;# 
   634  019E                     	;# 
   635  019F                     	;# 
   636  020C                     	;# 
   637  020D                     	;# 
   638  0211                     	;# 
   639  0211                     	;# 
   640  0212                     	;# 
   641  0212                     	;# 
   642  0213                     	;# 
   643  0213                     	;# 
   644  0214                     	;# 
   645  0214                     	;# 
   646  0215                     	;# 
   647  0215                     	;# 
   648  0215                     	;# 
   649  0216                     	;# 
   650  0216                     	;# 
   651  0217                     	;# 
   652  0217                     	;# 
   653  0219                     	;# 
   654  021A                     	;# 
   655  021B                     	;# 
   656  021C                     	;# 
   657  021D                     	;# 
   658  021E                     	;# 
   659  021F                     	;# 
   660  0291                     	;# 
   661  0291                     	;# 
   662  0292                     	;# 
   663  0293                     	;# 
   664  0294                     	;# 
   665  0295                     	;# 
   666  0295                     	;# 
   667  0296                     	;# 
   668  0298                     	;# 
   669  0298                     	;# 
   670  0299                     	;# 
   671  029A                     	;# 
   672  029B                     	;# 
   673  029C                     	;# 
   674  029C                     	;# 
   675  029D                     	;# 
   676  029E                     	;# 
   677  029E                     	;# 
   678  0311                     	;# 
   679  0311                     	;# 
   680  0312                     	;# 
   681  0313                     	;# 
   682  0318                     	;# 
   683  0318                     	;# 
   684  0319                     	;# 
   685  031A                     	;# 
   686  0394                     	;# 
   687  0395                     	;# 
   688  0396                     	;# 
   689  039A                     	;# 
   690  039C                     	;# 
   691  039D                     	;# 
   692  039E                     	;# 
   693  039F                     	;# 
   694  0415                     	;# 
   695  0416                     	;# 
   696  0417                     	;# 
   697  041C                     	;# 
   698  041D                     	;# 
   699  041E                     	;# 
   700  0FE4                     	;# 
   701  0FE5                     	;# 
   702  0FE6                     	;# 
   703  0FE7                     	;# 
   704  0FE8                     	;# 
   705  0FE9                     	;# 
   706  0FEA                     	;# 
   707  0FEB                     	;# 
   708  0FED                     	;# 
   709  0FEE                     	;# 
   710  0FEF                     	;# 
   711  0000                     	;# 
   712  0001                     	;# 
   713  0002                     	;# 
   714  0003                     	;# 
   715  0004                     	;# 
   716  0005                     	;# 
   717  0006                     	;# 
   718  0007                     	;# 
   719  0008                     	;# 
   720  0009                     	;# 
   721  000A                     	;# 
   722  000B                     	;# 
   723  000C                     	;# 
   724  000D                     	;# 
   725  0011                     	;# 
   726  0012                     	;# 
   727  0013                     	;# 
   728  0014                     	;# 
   729  0015                     	;# 
   730  0016                     	;# 
   731  0016                     	;# 
   732  0017                     	;# 
   733  0018                     	;# 
   734  0019                     	;# 
   735  001A                     	;# 
   736  001B                     	;# 
   737  001C                     	;# 
   738  001E                     	;# 
   739  001F                     	;# 
   740  008C                     	;# 
   741  008D                     	;# 
   742  0091                     	;# 
   743  0092                     	;# 
   744  0093                     	;# 
   745  0094                     	;# 
   746  0095                     	;# 
   747  0096                     	;# 
   748  0097                     	;# 
   749  0098                     	;# 
   750  0099                     	;# 
   751  009A                     	;# 
   752  009B                     	;# 
   753  009B                     	;# 
   754  009C                     	;# 
   755  009D                     	;# 
   756  009E                     	;# 
   757  010C                     	;# 
   758  010D                     	;# 
   759  0111                     	;# 
   760  0112                     	;# 
   761  0113                     	;# 
   762  0114                     	;# 
   763  0115                     	;# 
   764  0116                     	;# 
   765  0117                     	;# 
   766  0118                     	;# 
   767  0119                     	;# 
   768  011A                     	;# 
   769  011B                     	;# 
   770  011D                     	;# 
   771  011E                     	;# 
   772  018C                     	;# 
   773  018D                     	;# 
   774  0191                     	;# 
   775  0191                     	;# 
   776  0192                     	;# 
   777  0193                     	;# 
   778  0193                     	;# 
   779  0193                     	;# 
   780  0194                     	;# 
   781  0195                     	;# 
   782  0196                     	;# 
   783  0199                     	;# 
   784  019A                     	;# 
   785  019B                     	;# 
   786  019B                     	;# 
   787  019B                     	;# 
   788  019B                     	;# 
   789  019C                     	;# 
   790  019C                     	;# 
   791  019D                     	;# 
   792  019E                     	;# 
   793  019F                     	;# 
   794  020C                     	;# 
   795  020D                     	;# 
   796  0211                     	;# 
   797  0211                     	;# 
   798  0212                     	;# 
   799  0212                     	;# 
   800  0213                     	;# 
   801  0213                     	;# 
   802  0214                     	;# 
   803  0214                     	;# 
   804  0215                     	;# 
   805  0215                     	;# 
   806  0215                     	;# 
   807  0216                     	;# 
   808  0216                     	;# 
   809  0217                     	;# 
   810  0217                     	;# 
   811  0219                     	;# 
   812  021A                     	;# 
   813  021B                     	;# 
   814  021C                     	;# 
   815  021D                     	;# 
   816  021E                     	;# 
   817  021F                     	;# 
   818  0291                     	;# 
   819  0291                     	;# 
   820  0292                     	;# 
   821  0293                     	;# 
   822  0294                     	;# 
   823  0295                     	;# 
   824  0295                     	;# 
   825  0296                     	;# 
   826  0298                     	;# 
   827  0298                     	;# 
   828  0299                     	;# 
   829  029A                     	;# 
   830  029B                     	;# 
   831  029C                     	;# 
   832  029C                     	;# 
   833  029D                     	;# 
   834  029E                     	;# 
   835  029E                     	;# 
   836  0311                     	;# 
   837  0311                     	;# 
   838  0312                     	;# 
   839  0313                     	;# 
   840  0318                     	;# 
   841  0318                     	;# 
   842  0319                     	;# 
   843  031A                     	;# 
   844  0394                     	;# 
   845  0395                     	;# 
   846  0396                     	;# 
   847  039A                     	;# 
   848  039C                     	;# 
   849  039D                     	;# 
   850  039E                     	;# 
   851  039F                     	;# 
   852  0415                     	;# 
   853  0416                     	;# 
   854  0417                     	;# 
   855  041C                     	;# 
   856  041D                     	;# 
   857  041E                     	;# 
   858  0FE4                     	;# 
   859  0FE5                     	;# 
   860  0FE6                     	;# 
   861  0FE7                     	;# 
   862  0FE8                     	;# 
   863  0FE9                     	;# 
   864  0FEA                     	;# 
   865  0FEB                     	;# 
   866  0FED                     	;# 
   867  0FEE                     	;# 
   868  0FEF                     	;# 
   869  0000                     	;# 
   870  0001                     	;# 
   871  0002                     	;# 
   872  0003                     	;# 
   873  0004                     	;# 
   874  0005                     	;# 
   875  0006                     	;# 
   876  0007                     	;# 
   877  0008                     	;# 
   878  0009                     	;# 
   879  000A                     	;# 
   880  000B                     	;# 
   881  000C                     	;# 
   882  000D                     	;# 
   883  0011                     	;# 
   884  0012                     	;# 
   885  0013                     	;# 
   886  0014                     	;# 
   887  0015                     	;# 
   888  0016                     	;# 
   889  0016                     	;# 
   890  0017                     	;# 
   891  0018                     	;# 
   892  0019                     	;# 
   893  001A                     	;# 
   894  001B                     	;# 
   895  001C                     	;# 
   896  001E                     	;# 
   897  001F                     	;# 
   898  008C                     	;# 
   899  008D                     	;# 
   900  0091                     	;# 
   901  0092                     	;# 
   902  0093                     	;# 
   903  0094                     	;# 
   904  0095                     	;# 
   905  0096                     	;# 
   906  0097                     	;# 
   907  0098                     	;# 
   908  0099                     	;# 
   909  009A                     	;# 
   910  009B                     	;# 
   911  009B                     	;# 
   912  009C                     	;# 
   913  009D                     	;# 
   914  009E                     	;# 
   915  010C                     	;# 
   916  010D                     	;# 
   917  0111                     	;# 
   918  0112                     	;# 
   919  0113                     	;# 
   920  0114                     	;# 
   921  0115                     	;# 
   922  0116                     	;# 
   923  0117                     	;# 
   924  0118                     	;# 
   925  0119                     	;# 
   926  011A                     	;# 
   927  011B                     	;# 
   928  011D                     	;# 
   929  011E                     	;# 
   930  018C                     	;# 
   931  018D                     	;# 
   932  0191                     	;# 
   933  0191                     	;# 
   934  0192                     	;# 
   935  0193                     	;# 
   936  0193                     	;# 
   937  0193                     	;# 
   938  0194                     	;# 
   939  0195                     	;# 
   940  0196                     	;# 
   941  0199                     	;# 
   942  019A                     	;# 
   943  019B                     	;# 
   944  019B                     	;# 
   945  019B                     	;# 
   946  019B                     	;# 
   947  019C                     	;# 
   948  019C                     	;# 
   949  019D                     	;# 
   950  019E                     	;# 
   951  019F                     	;# 
   952  020C                     	;# 
   953  020D                     	;# 
   954  0211                     	;# 
   955  0211                     	;# 
   956  0212                     	;# 
   957  0212                     	;# 
   958  0213                     	;# 
   959  0213                     	;# 
   960  0214                     	;# 
   961  0214                     	;# 
   962  0215                     	;# 
   963  0215                     	;# 
   964  0215                     	;# 
   965  0216                     	;# 
   966  0216                     	;# 
   967  0217                     	;# 
   968  0217                     	;# 
   969  0219                     	;# 
   970  021A                     	;# 
   971  021B                     	;# 
   972  021C                     	;# 
   973  021D                     	;# 
   974  021E                     	;# 
   975  021F                     	;# 
   976  0291                     	;# 
   977  0291                     	;# 
   978  0292                     	;# 
   979  0293                     	;# 
   980  0294                     	;# 
   981  0295                     	;# 
   982  0295                     	;# 
   983  0296                     	;# 
   984  0298                     	;# 
   985  0298                     	;# 
   986  0299                     	;# 
   987  029A                     	;# 
   988  029B                     	;# 
   989  029C                     	;# 
   990  029C                     	;# 
   991  029D                     	;# 
   992  029E                     	;# 
   993  029E                     	;# 
   994  0311                     	;# 
   995  0311                     	;# 
   996  0312                     	;# 
   997  0313                     	;# 
   998  0318                     	;# 
   999  0318                     	;# 
  1000  0319                     	;# 
  1001  031A                     	;# 
  1002  0394                     	;# 
  1003  0395                     	;# 
  1004  0396                     	;# 
  1005  039A                     	;# 
  1006  039C                     	;# 
  1007  039D                     	;# 
  1008  039E                     	;# 
  1009  039F                     	;# 
  1010  0415                     	;# 
  1011  0416                     	;# 
  1012  0417                     	;# 
  1013  041C                     	;# 
  1014  041D                     	;# 
  1015  041E                     	;# 
  1016  0FE4                     	;# 
  1017  0FE5                     	;# 
  1018  0FE6                     	;# 
  1019  0FE7                     	;# 
  1020  0FE8                     	;# 
  1021  0FE9                     	;# 
  1022  0FEA                     	;# 
  1023  0FEB                     	;# 
  1024  0FED                     	;# 
  1025  0FEE                     	;# 
  1026  0FEF                     	;# 
  1027  0000                     	;# 
  1028  0001                     	;# 
  1029  0002                     	;# 
  1030  0003                     	;# 
  1031  0004                     	;# 
  1032  0005                     	;# 
  1033  0006                     	;# 
  1034  0007                     	;# 
  1035  0008                     	;# 
  1036  0009                     	;# 
  1037  000A                     	;# 
  1038  000B                     	;# 
  1039  000C                     	;# 
  1040  000D                     	;# 
  1041  0011                     	;# 
  1042  0012                     	;# 
  1043  0013                     	;# 
  1044  0014                     	;# 
  1045  0015                     	;# 
  1046  0016                     	;# 
  1047  0016                     	;# 
  1048  0017                     	;# 
  1049  0018                     	;# 
  1050  0019                     	;# 
  1051  001A                     	;# 
  1052  001B                     	;# 
  1053  001C                     	;# 
  1054  001E                     	;# 
  1055  001F                     	;# 
  1056  008C                     	;# 
  1057  008D                     	;# 
  1058  0091                     	;# 
  1059  0092                     	;# 
  1060  0093                     	;# 
  1061  0094                     	;# 
  1062  0095                     	;# 
  1063  0096                     	;# 
  1064  0097                     	;# 
  1065  0098                     	;# 
  1066  0099                     	;# 
  1067  009A                     	;# 
  1068  009B                     	;# 
  1069  009B                     	;# 
  1070  009C                     	;# 
  1071  009D                     	;# 
  1072  009E                     	;# 
  1073  010C                     	;# 
  1074  010D                     	;# 
  1075  0111                     	;# 
  1076  0112                     	;# 
  1077  0113                     	;# 
  1078  0114                     	;# 
  1079  0115                     	;# 
  1080  0116                     	;# 
  1081  0117                     	;# 
  1082  0118                     	;# 
  1083  0119                     	;# 
  1084  011A                     	;# 
  1085  011B                     	;# 
  1086  011D                     	;# 
  1087  011E                     	;# 
  1088  018C                     	;# 
  1089  018D                     	;# 
  1090  0191                     	;# 
  1091  0191                     	;# 
  1092  0192                     	;# 
  1093  0193                     	;# 
  1094  0193                     	;# 
  1095  0193                     	;# 
  1096  0194                     	;# 
  1097  0195                     	;# 
  1098  0196                     	;# 
  1099  0199                     	;# 
  1100  019A                     	;# 
  1101  019B                     	;# 
  1102  019B                     	;# 
  1103  019B                     	;# 
  1104  019B                     	;# 
  1105  019C                     	;# 
  1106  019C                     	;# 
  1107  019D                     	;# 
  1108  019E                     	;# 
  1109  019F                     	;# 
  1110  020C                     	;# 
  1111  020D                     	;# 
  1112  0211                     	;# 
  1113  0211                     	;# 
  1114  0212                     	;# 
  1115  0212                     	;# 
  1116  0213                     	;# 
  1117  0213                     	;# 
  1118  0214                     	;# 
  1119  0214                     	;# 
  1120  0215                     	;# 
  1121  0215                     	;# 
  1122  0215                     	;# 
  1123  0216                     	;# 
  1124  0216                     	;# 
  1125  0217                     	;# 
  1126  0217                     	;# 
  1127  0219                     	;# 
  1128  021A                     	;# 
  1129  021B                     	;# 
  1130  021C                     	;# 
  1131  021D                     	;# 
  1132  021E                     	;# 
  1133  021F                     	;# 
  1134  0291                     	;# 
  1135  0291                     	;# 
  1136  0292                     	;# 
  1137  0293                     	;# 
  1138  0294                     	;# 
  1139  0295                     	;# 
  1140  0295                     	;# 
  1141  0296                     	;# 
  1142  0298                     	;# 
  1143  0298                     	;# 
  1144  0299                     	;# 
  1145  029A                     	;# 
  1146  029B                     	;# 
  1147  029C                     	;# 
  1148  029C                     	;# 
  1149  029D                     	;# 
  1150  029E                     	;# 
  1151  029E                     	;# 
  1152  0311                     	;# 
  1153  0311                     	;# 
  1154  0312                     	;# 
  1155  0313                     	;# 
  1156  0318                     	;# 
  1157  0318                     	;# 
  1158  0319                     	;# 
  1159  031A                     	;# 
  1160  0394                     	;# 
  1161  0395                     	;# 
  1162  0396                     	;# 
  1163  039A                     	;# 
  1164  039C                     	;# 
  1165  039D                     	;# 
  1166  039E                     	;# 
  1167  039F                     	;# 
  1168  0415                     	;# 
  1169  0416                     	;# 
  1170  0417                     	;# 
  1171  041C                     	;# 
  1172  041D                     	;# 
  1173  041E                     	;# 
  1174  0FE4                     	;# 
  1175  0FE5                     	;# 
  1176  0FE6                     	;# 
  1177  0FE7                     	;# 
  1178  0FE8                     	;# 
  1179  0FE9                     	;# 
  1180  0FEA                     	;# 
  1181  0FEB                     	;# 
  1182  0FED                     	;# 
  1183  0FEE                     	;# 
  1184  0FEF                     	;# 
  1185  0000                     	;# 
  1186  0001                     	;# 
  1187  0002                     	;# 
  1188  0003                     	;# 
  1189  0004                     	;# 
  1190  0005                     	;# 
  1191  0006                     	;# 
  1192  0007                     	;# 
  1193  0008                     	;# 
  1194  0009                     	;# 
  1195  000A                     	;# 
  1196  000B                     	;# 
  1197  000C                     	;# 
  1198  000D                     	;# 
  1199  0011                     	;# 
  1200  0012                     	;# 
  1201  0013                     	;# 
  1202  0014                     	;# 
  1203  0015                     	;# 
  1204  0016                     	;# 
  1205  0016                     	;# 
  1206  0017                     	;# 
  1207  0018                     	;# 
  1208  0019                     	;# 
  1209  001A                     	;# 
  1210  001B                     	;# 
  1211  001C                     	;# 
  1212  001E                     	;# 
  1213  001F                     	;# 
  1214  008C                     	;# 
  1215  008D                     	;# 
  1216  0091                     	;# 
  1217  0092                     	;# 
  1218  0093                     	;# 
  1219  0094                     	;# 
  1220  0095                     	;# 
  1221  0096                     	;# 
  1222  0097                     	;# 
  1223  0098                     	;# 
  1224  0099                     	;# 
  1225  009A                     	;# 
  1226  009B                     	;# 
  1227  009B                     	;# 
  1228  009C                     	;# 
  1229  009D                     	;# 
  1230  009E                     	;# 
  1231  010C                     	;# 
  1232  010D                     	;# 
  1233  0111                     	;# 
  1234  0112                     	;# 
  1235  0113                     	;# 
  1236  0114                     	;# 
  1237  0115                     	;# 
  1238  0116                     	;# 
  1239  0117                     	;# 
  1240  0118                     	;# 
  1241  0119                     	;# 
  1242  011A                     	;# 
  1243  011B                     	;# 
  1244  011D                     	;# 
  1245  011E                     	;# 
  1246  018C                     	;# 
  1247  018D                     	;# 
  1248  0191                     	;# 
  1249  0191                     	;# 
  1250  0192                     	;# 
  1251  0193                     	;# 
  1252  0193                     	;# 
  1253  0193                     	;# 
  1254  0194                     	;# 
  1255  0195                     	;# 
  1256  0196                     	;# 
  1257  0199                     	;# 
  1258  019A                     	;# 
  1259  019B                     	;# 
  1260  019B                     	;# 
  1261  019B                     	;# 
  1262  019B                     	;# 
  1263  019C                     	;# 
  1264  019C                     	;# 
  1265  019D                     	;# 
  1266  019E                     	;# 
  1267  019F                     	;# 
  1268  020C                     	;# 
  1269  020D                     	;# 
  1270  0211                     	;# 
  1271  0211                     	;# 
  1272  0212                     	;# 
  1273  0212                     	;# 
  1274  0213                     	;# 
  1275  0213                     	;# 
  1276  0214                     	;# 
  1277  0214                     	;# 
  1278  0215                     	;# 
  1279  0215                     	;# 
  1280  0215                     	;# 
  1281  0216                     	;# 
  1282  0216                     	;# 
  1283  0217                     	;# 
  1284  0217                     	;# 
  1285  0219                     	;# 
  1286  021A                     	;# 
  1287  021B                     	;# 
  1288  021C                     	;# 
  1289  021D                     	;# 
  1290  021E                     	;# 
  1291  021F                     	;# 
  1292  0291                     	;# 
  1293  0291                     	;# 
  1294  0292                     	;# 
  1295  0293                     	;# 
  1296  0294                     	;# 
  1297  0295                     	;# 
  1298  0295                     	;# 
  1299  0296                     	;# 
  1300  0298                     	;# 
  1301  0298                     	;# 
  1302  0299                     	;# 
  1303  029A                     	;# 
  1304  029B                     	;# 
  1305  029C                     	;# 
  1306  029C                     	;# 
  1307  029D                     	;# 
  1308  029E                     	;# 
  1309  029E                     	;# 
  1310  0311                     	;# 
  1311  0311                     	;# 
  1312  0312                     	;# 
  1313  0313                     	;# 
  1314  0318                     	;# 
  1315  0318                     	;# 
  1316  0319                     	;# 
  1317  031A                     	;# 
  1318  0394                     	;# 
  1319  0395                     	;# 
  1320  0396                     	;# 
  1321  039A                     	;# 
  1322  039C                     	;# 
  1323  039D                     	;# 
  1324  039E                     	;# 
  1325  039F                     	;# 
  1326  0415                     	;# 
  1327  0416                     	;# 
  1328  0417                     	;# 
  1329  041C                     	;# 
  1330  041D                     	;# 
  1331  041E                     	;# 
  1332  0FE4                     	;# 
  1333  0FE5                     	;# 
  1334  0FE6                     	;# 
  1335  0FE7                     	;# 
  1336  0FE8                     	;# 
  1337  0FE9                     	;# 
  1338  0FEA                     	;# 
  1339  0FEB                     	;# 
  1340  0FED                     	;# 
  1341  0FEE                     	;# 
  1342  0FEF                     	;# 
  1343                           
  1344                           	psect	idataBANK0
  1345  037E                     __pidataBANK0:	
  1346                           
  1347                           ;initializer for _BlinkCounterOff
  1348  037E  3409               	retlw	9
  1349                           
  1350                           ;initializer for _BlinkCounterOn
  1351  037F  3401               	retlw	1
  1352                           
  1353                           ;initializer for _TMR4_INTERRUPT_TICKER_FACTOR
  1354  0380  3402               	retlw	2
  1355                           
  1356                           	psect	stringtext1
  1357  0384                     __pstringtext1:	
  1358  0384                     _TurnOffTimeout:	
  1359  0384  34B4               	retlw	180
  1360  0385                     __end_of_TurnOffTimeout:	
  1361                           
  1362                           	psect	nvBANK0
  1363  0044                     __pnvBANK0:	
  1364  0044                     _IOCBF5_InterruptHandler:	
  1365  0044                     	ds	2
  1366  0046                     _TMR2_InterruptHandler:	
  1367  0046                     	ds	2
  1368  000C                     _PORTAbits	set	12
  1369  000B                     _INTCONbits	set	11
  1370  001C                     _T2CONbits	set	28
  1371  001C                     _T2CON	set	28
  1372  0011                     _PIR1bits	set	17
  1373  001A                     _TMR2	set	26
  1374  001B                     _PR2	set	27
  1375  0095                     _OPTION_REGbits	set	149
  1376  008D                     _TRISB	set	141
  1377  008C                     _TRISA	set	140
  1378  0097                     _WDTCON	set	151
  1379  0098                     _OSCTUNE	set	152
  1380  0099                     _OSCCON	set	153
  1381  009D                     _ADCON0bits	set	157
  1382  009C                     _ADRESH	set	156
  1383  009B                     _ADRESL	set	155
  1384  009E                     _ADCON1	set	158
  1385  009D                     _ADCON0	set	157
  1386  0091                     _PIE1bits	set	145
  1387  0117                     _FVRCONbits	set	279
  1388  0117                     _FVRCON	set	279
  1389  011E                     _APFCON1	set	286
  1390  011D                     _APFCON0	set	285
  1391  010D                     _LATB	set	269
  1392  010C                     _LATA	set	268
  1393  0116                     _BORCON	set	278
  1394  010D                     _LATBbits	set	269
  1395  018C                     _ANSELA	set	396
  1396  018D                     _ANSELB	set	397
  1397  020C                     _WPUA	set	524
  1398  020D                     _WPUB	set	525
  1399  0394                     _IOCBPbits	set	916
  1400  0395                     _IOCBNbits	set	917
  1401  0396                     _IOCBFbits	set	918
  1402                           
  1403                           ; #config settings
  1404  0000                     
  1405                           	psect	cinit
  1406  0025                     start_initialization:	
  1407  0025                     __initialization:	
  1408                           
  1409                           ; Initialize objects allocated to BANK0
  1410  0025  3183  237E  3180   	fcall	__pidataBANK0	;fetch initializer
  1411  0028  00C8               	movwf	__pdataBANK0& (0+127)
  1412  0029  3183  237F  3180   	fcall	__pidataBANK0+1	;fetch initializer
  1413  002C  00C9               	movwf	(__pdataBANK0+1)& (0+127)
  1414  002D  3183  2380         	fcall	__pidataBANK0+2	;fetch initializer
  1415  002F  00CA               	movwf	(__pdataBANK0+2)& (0+127)
  1416                           
  1417                           ; Clear objects allocated to BANK0
  1418  0030  01BE               	clrf	__pbssBANK0& (0+127)
  1419  0031  01BF               	clrf	(__pbssBANK0+1)& (0+127)
  1420  0032  01C0               	clrf	(__pbssBANK0+2)& (0+127)
  1421  0033  01C1               	clrf	(__pbssBANK0+3)& (0+127)
  1422  0034  01C2               	clrf	(__pbssBANK0+4)& (0+127)
  1423  0035  01C3               	clrf	(__pbssBANK0+5)& (0+127)
  1424  0036                     end_of_initialization:	
  1425                           ;End of C runtime variable initialization code
  1426                           
  1427  0036                     __end_of__initialization:	
  1428  0036  107E               	bcf	int$flags,0	;clear compiler interrupt flag (level 1)
  1429  0037  0020               	movlb	0
  1430  0038  3181  2952         	ljmp	_main	;jump to C main() function
  1431                           
  1432                           	psect	bssBANK0
  1433  003E                     __pbssBANK0:	
  1434  003E                     TMR2_ISR@CountCallBack:	
  1435  003E                     	ds	2
  1436  0040                     _BlinkCounter:	
  1437  0040                     	ds	1
  1438  0041                     _TimeoutCounter:	
  1439  0041                     	ds	1
  1440  0042                     _LedState:	
  1441  0042                     	ds	1
  1442  0043                     _TMR4_INT_FLAG:	
  1443  0043                     	ds	1
  1444                           
  1445                           	psect	dataBANK0
  1446  0048                     __pdataBANK0:	
  1447  0048                     _BlinkCounterOff:	
  1448  0048                     	ds	1
  1449  0049                     _BlinkCounterOn:	
  1450  0049                     	ds	1
  1451  004A                     _TMR4_INTERRUPT_TICKER_FACTOR:	
  1452  004A                     	ds	1
  1453                           
  1454                           	psect	cstackCOMMON
  1455  0070                     __pcstackCOMMON:	
  1456  0070                     ?___ftge:	
  1457  0070                     ?_TMR2_DefaultInterruptHandler:	
  1458                           ; 1 bit 
  1459                           
  1460  0070                     ??_TMR2_DefaultInterruptHandler:	
  1461                           ; 1 bytes @ 0x0
  1462                           
  1463  0070                     ?_TMR2_CallBack:	
  1464                           ; 1 bytes @ 0x0
  1465                           
  1466  0070                     ??_TMR2_CallBack:	
  1467                           ; 1 bytes @ 0x0
  1468                           
  1469  0070                     ?_ADC_SelectChannel:	
  1470                           ; 1 bytes @ 0x0
  1471                           
  1472  0070                     ?_ADC_CompareValue:	
  1473                           ; 1 bytes @ 0x0
  1474                           
  1475  0070                     ?_PIN_MANAGER_IOC:	
  1476                           ; 1 bytes @ 0x0
  1477                           
  1478  0070                     ?_PIN_MANAGER_Initialize:	
  1479                           ; 1 bytes @ 0x0
  1480                           
  1481  0070                     ?_OSCILLATOR_Initialize:	
  1482                           ; 1 bytes @ 0x0
  1483                           
  1484  0070                     ?_WDT_Initialize:	
  1485                           ; 1 bytes @ 0x0
  1486                           
  1487  0070                     ?_FVR_Initialize:	
  1488                           ; 1 bytes @ 0x0
  1489                           
  1490  0070                     ?_IOCBF5_DefaultInterruptHandler:	
  1491                           ; 1 bytes @ 0x0
  1492                           
  1493  0070                     ??_IOCBF5_DefaultInterruptHandler:	
  1494                           ; 1 bytes @ 0x0
  1495                           
  1496  0070                     ?_IOCBF5_ISR:	
  1497                           ; 1 bytes @ 0x0
  1498                           
  1499  0070                     ?_TMR2_Initialize:	
  1500                           ; 1 bytes @ 0x0
  1501                           
  1502  0070                     ?_TMR2_ISR:	
  1503                           ; 1 bytes @ 0x0
  1504                           
  1505  0070                     ??_TMR2_ISR:	
  1506                           ; 1 bytes @ 0x0
  1507                           
  1508  0070                     ?_ADC_Initialize:	
  1509                           ; 1 bytes @ 0x0
  1510                           
  1511  0070                     ?_ADC_StartConversion:	
  1512                           ; 1 bytes @ 0x0
  1513                           
  1514  0070                     ?_ADC_ISR:	
  1515                           ; 1 bytes @ 0x0
  1516                           
  1517  0070                     ?_INTERRUPT_InterruptManager:	
  1518                           ; 1 bytes @ 0x0
  1519                           
  1520  0070                     ?_SYSTEM_Initialize:	
  1521                           ; 1 bytes @ 0x0
  1522                           
  1523  0070                     ?_POWER_LED_ON:	
  1524                           ; 1 bytes @ 0x0
  1525                           
  1526  0070                     ??_POWER_LED_ON:	
  1527                           ; 1 bytes @ 0x0
  1528                           
  1529  0070                     ?_POWER_LED_OFF:	
  1530                           ; 1 bytes @ 0x0
  1531                           
  1532  0070                     ??_POWER_LED_OFF:	
  1533                           ; 1 bytes @ 0x0
  1534                           
  1535  0070                     ?_POWER_LED_TOGGLE:	
  1536                           ; 1 bytes @ 0x0
  1537                           
  1538  0070                     ??_POWER_LED_TOGGLE:	
  1539                           ; 1 bytes @ 0x0
  1540                           
  1541  0070                     ?_VT_ISR:	
  1542                           ; 1 bytes @ 0x0
  1543                           
  1544  0070                     ??_VT_ISR:	
  1545                           ; 1 bytes @ 0x0
  1546                           
  1547  0070                     ?_main:	
  1548                           ; 1 bytes @ 0x0
  1549                           
  1550  0070                     ?_ADC_GetConversionResult:	
  1551                           ; 1 bytes @ 0x0
  1552                           
  1553  0070                     ?___ftpack:	
  1554                           ; 2 bytes @ 0x0
  1555                           
  1556  0070                     ___ftpack@arg:	
  1557                           ; 3 bytes @ 0x0
  1558                           
  1559  0070                     ___ftge@ff1:	
  1560                           ; 3 bytes @ 0x0
  1561                           
  1562                           
  1563                           ; 3 bytes @ 0x0
  1564  0070                     	ds	2
  1565  0072                     ??_ADC_GetConversionResult:	
  1566                           
  1567                           ; 1 bytes @ 0x2
  1568  0072                     	ds	1
  1569  0073                     ___ftpack@exp:	
  1570  0073                     ___ftge@ff2:	
  1571                           ; 1 bytes @ 0x3
  1572                           
  1573                           
  1574                           ; 3 bytes @ 0x3
  1575  0073                     	ds	1
  1576  0074                     ___ftpack@sign:	
  1577                           
  1578                           ; 1 bytes @ 0x4
  1579  0074                     	ds	1
  1580  0075                     ??___ftpack:	
  1581                           
  1582                           ; 1 bytes @ 0x5
  1583  0075                     	ds	1
  1584  0076                     ??___ftge:	
  1585                           
  1586                           ; 1 bytes @ 0x6
  1587  0076                     	ds	2
  1588  0078                     ?___lwtoft:	
  1589  0078                     ___lwtoft@c:	
  1590                           ; 3 bytes @ 0x8
  1591                           
  1592                           
  1593                           ; 2 bytes @ 0x8
  1594  0078                     	ds	3
  1595  007B                     ??___lwtoft:	
  1596                           
  1597                           ; 1 bytes @ 0xB
  1598  007B                     	ds	1
  1599  007C                     ??_ADC_CompareValue:	
  1600  007C                     ??_ADC_ISR:	
  1601                           ; 1 bytes @ 0xC
  1602                           
  1603  007C                     VT_ISR@code:	
  1604                           ; 1 bytes @ 0xC
  1605                           
  1606                           
  1607                           ; 2 bytes @ 0xC
  1608  007C                     	ds	2
  1609  007E                     ??_PIN_MANAGER_IOC:	
  1610  007E                     ??_IOCBF5_ISR:	
  1611                           ; 1 bytes @ 0xE
  1612                           
  1613  007E                     ??_INTERRUPT_InterruptManager:	
  1614                           ; 1 bytes @ 0xE
  1615                           
  1616                           
  1617                           	psect	cstackBANK0
  1618  0020                     __pcstackBANK0:	
  1619                           ; 1 bytes @ 0xE
  1620                           
  1621  0020                     ?___ftmul:	
  1622  0020                     ___ftmul@f1:	
  1623                           ; 3 bytes @ 0x0
  1624                           
  1625                           
  1626                           ; 3 bytes @ 0x0
  1627  0020                     	ds	3
  1628  0023                     ___ftmul@f2:	
  1629                           
  1630                           ; 3 bytes @ 0x3
  1631  0023                     	ds	3
  1632  0026                     ??___ftmul:	
  1633                           
  1634                           ; 1 bytes @ 0x6
  1635  0026                     	ds	4
  1636  002A                     ___ftmul@exp:	
  1637                           
  1638                           ; 1 bytes @ 0xA
  1639  002A                     	ds	1
  1640  002B                     ___ftmul@f3_as_product:	
  1641                           
  1642                           ; 3 bytes @ 0xB
  1643  002B                     	ds	3
  1644  002E                     ___ftmul@cntr:	
  1645                           
  1646                           ; 1 bytes @ 0xE
  1647  002E                     	ds	1
  1648  002F                     ___ftmul@sign:	
  1649                           
  1650                           ; 1 bytes @ 0xF
  1651  002F                     	ds	1
  1652  0030                     ADC_CompareValue@valueNum:	
  1653                           
  1654                           ; 2 bytes @ 0x10
  1655  0030                     	ds	2
  1656  0032                     ADC_CompareValue@value:	
  1657                           
  1658                           ; 3 bytes @ 0x12
  1659  0032                     	ds	3
  1660  0035                     ?_TMR2_SetInterruptHandler:	
  1661  0035                     ??_ADC_SelectChannel:	
  1662                           ; 1 bytes @ 0x15
  1663                           
  1664  0035                     ??_OSCILLATOR_Initialize:	
  1665                           ; 1 bytes @ 0x15
  1666                           
  1667  0035                     ??_WDT_Initialize:	
  1668                           ; 1 bytes @ 0x15
  1669                           
  1670  0035                     ??_FVR_Initialize:	
  1671                           ; 1 bytes @ 0x15
  1672                           
  1673  0035                     ?_IOCBF5_SetInterruptHandler:	
  1674                           ; 1 bytes @ 0x15
  1675                           
  1676  0035                     ??_ADC_StartConversion:	
  1677                           ; 1 bytes @ 0x15
  1678                           
  1679  0035                     ?_Delay_Xms:	
  1680                           ; 1 bytes @ 0x15
  1681                           
  1682  0035                     TMR2_SetInterruptHandler@InterruptHandler:	
  1683                           ; 1 bytes @ 0x15
  1684                           
  1685  0035                     IOCBF5_SetInterruptHandler@InterruptHandler:	
  1686                           ; 2 bytes @ 0x15
  1687                           
  1688  0035                     Delay_Xms@delay:	
  1689                           ; 2 bytes @ 0x15
  1690                           
  1691                           
  1692                           ; 4 bytes @ 0x15
  1693  0035                     	ds	1
  1694  0036                     ADC_SelectChannel@channel:	
  1695                           
  1696                           ; 1 bytes @ 0x16
  1697  0036                     	ds	1
  1698  0037                     ??_TMR2_SetInterruptHandler:	
  1699  0037                     ??_PIN_MANAGER_Initialize:	
  1700                           ; 1 bytes @ 0x17
  1701                           
  1702  0037                     ??_IOCBF5_SetInterruptHandler:	
  1703                           ; 1 bytes @ 0x17
  1704                           
  1705  0037                     ??_TMR2_Initialize:	
  1706                           ; 1 bytes @ 0x17
  1707                           
  1708  0037                     ??_ADC_Initialize:	
  1709                           ; 1 bytes @ 0x17
  1710                           
  1711  0037                     ??_SYSTEM_Initialize:	
  1712                           ; 1 bytes @ 0x17
  1713                           
  1714                           
  1715                           ; 1 bytes @ 0x17
  1716  0037                     	ds	2
  1717  0039                     ??_Delay_Xms:	
  1718                           
  1719                           ; 1 bytes @ 0x19
  1720  0039                     	ds	1
  1721  003A                     Delay_Xms@i:	
  1722                           
  1723                           ; 4 bytes @ 0x1A
  1724  003A                     	ds	4
  1725  003E                     ??_main:	
  1726                           
  1727                           	psect	maintext
  1728  0152                     __pmaintext:	
  1729                           ; 1 bytes @ 0x1E
  1730 ;;
  1731 ;;Main: autosize = 0, tempsize = 0, incstack = 0, save=0
  1732 ;;
  1733 ;; *************** function _main *****************
  1734 ;; Defined at:
  1735 ;;		line 78 in file "main.c"
  1736 ;; Parameters:    Size  Location     Type
  1737 ;;		None
  1738 ;; Auto vars:     Size  Location     Type
  1739 ;;		None
  1740 ;; Return value:  Size  Location     Type
  1741 ;;                  1    wreg      void 
  1742 ;; Registers used:
  1743 ;;		wreg, status,2, status,0, pclath, cstack
  1744 ;; Tracked objects:
  1745 ;;		On entry : B1F/0
  1746 ;;		On exit  : 0/0
  1747 ;;		Unchanged: 0/0
  1748 ;; Data sizes:     COMMON   BANK0   BANK1   BANK2   BANK3   BANK4
  1749 ;;      Params:         0       0       0       0       0       0
  1750 ;;      Locals:         0       0       0       0       0       0
  1751 ;;      Temps:          0       0       0       0       0       0
  1752 ;;      Totals:         0       0       0       0       0       0
  1753 ;;Total ram usage:        0 bytes
  1754 ;; Hardware stack levels required when called:    9
  1755 ;; This function calls:
  1756 ;;		_ADC_StartConversion
  1757 ;;		_Delay_Xms
  1758 ;;		_IOCBF5_SetInterruptHandler
  1759 ;;		_SYSTEM_Initialize
  1760 ;; This function is called by:
  1761 ;;		Startup code after reset
  1762 ;; This function uses a non-reentrant model
  1763 ;;
  1764                           
  1765                           
  1766                           ;psect for function _main
  1767  0152                     _main:	
  1768                           
  1769                           ;main.c: 80: SYSTEM_Initialize();
  1770                           
  1771                           ;incstack = 0
  1772                           ; Regs used in _main: [wreg+status,2+status,0+pclath+cstack]
  1773  0152  3182  22E5  3181   	fcall	_SYSTEM_Initialize
  1774                           
  1775                           ;main.c: 86: (INTCONbits.GIE = 1);
  1776  0155  178B               	bsf	11,7	;volatile
  1777                           
  1778                           ;main.c: 88: (INTCONbits.PEIE = 1);
  1779  0156  170B               	bsf	11,6	;volatile
  1780  0157  0022               	movlb	2	; select bank2
  1781  0158  108D               	bcf	13,1	;volatile
  1782                           
  1783                           ;main.c: 92: Delay_Xms(500);
  1784  0159  3000               	movlw	0
  1785  015A  0020               	movlb	0	; select bank0
  1786  015B  00B8               	movwf	Delay_Xms@delay+3
  1787  015C  3000               	movlw	0
  1788  015D  00B7               	movwf	Delay_Xms@delay+2
  1789  015E  3001               	movlw	1
  1790  015F  00B6               	movwf	Delay_Xms@delay+1
  1791  0160  30F4               	movlw	244
  1792  0161  00B5               	movwf	Delay_Xms@delay
  1793  0162  3182  2271  3181   	fcall	_Delay_Xms
  1794  0165  0022               	movlb	2	; select bank2
  1795  0166  148D               	bsf	13,1	;volatile
  1796                           
  1797                           ;main.c: 94: Delay_Xms(500);
  1798  0167  3000               	movlw	0
  1799  0168  0020               	movlb	0	; select bank0
  1800  0169  00B8               	movwf	Delay_Xms@delay+3
  1801  016A  3000               	movlw	0
  1802  016B  00B7               	movwf	Delay_Xms@delay+2
  1803  016C  3001               	movlw	1
  1804  016D  00B6               	movwf	Delay_Xms@delay+1
  1805  016E  30F4               	movlw	244
  1806  016F  00B5               	movwf	Delay_Xms@delay
  1807  0170  3182  2271  3181   	fcall	_Delay_Xms
  1808  0173  0022               	movlb	2	; select bank2
  1809  0174  108D               	bcf	13,1	;volatile
  1810                           
  1811                           ;main.c: 96: Delay_Xms(500);
  1812  0175  3000               	movlw	0
  1813  0176  0020               	movlb	0	; select bank0
  1814  0177  00B8               	movwf	Delay_Xms@delay+3
  1815  0178  3000               	movlw	0
  1816  0179  00B7               	movwf	Delay_Xms@delay+2
  1817  017A  3001               	movlw	1
  1818  017B  00B6               	movwf	Delay_Xms@delay+1
  1819  017C  30F4               	movlw	244
  1820  017D  00B5               	movwf	Delay_Xms@delay
  1821  017E  3182  2271  3181   	fcall	_Delay_Xms
  1822  0181  0022               	movlb	2	; select bank2
  1823  0182  148D               	bsf	13,1	;volatile
  1824                           
  1825                           ;main.c: 99: Delay_Xms(5);
  1826  0183  3000               	movlw	0
  1827  0184  0020               	movlb	0	; select bank0
  1828  0185  00B8               	movwf	Delay_Xms@delay+3
  1829  0186  3000               	movlw	0
  1830  0187  00B7               	movwf	Delay_Xms@delay+2
  1831  0188  3000               	movlw	0
  1832  0189  00B6               	movwf	Delay_Xms@delay+1
  1833  018A  3005               	movlw	5
  1834  018B  00B5               	movwf	Delay_Xms@delay
  1835  018C  3182  2271  3181   	fcall	_Delay_Xms
  1836                           
  1837                           ;main.c: 101: IOCBF5_SetInterruptHandler(VT_ISR);
  1838  018F  3001               	movlw	low _VT_ISR
  1839  0190  0020               	movlb	0	; select bank0
  1840  0191  00B5               	movwf	IOCBF5_SetInterruptHandler@InterruptHandler
  1841  0192  3002               	movlw	high _VT_ISR
  1842  0193  00B6               	movwf	IOCBF5_SetInterruptHandler@InterruptHandler+1
  1843  0194  3183  2354  3181   	fcall	_IOCBF5_SetInterruptHandler
  1844  0197                     l1503:	
  1845                           
  1846                           ;main.c: 104: ADC_StartConversion();
  1847  0197  3183  2381  3181   	fcall	_ADC_StartConversion
  1848                           
  1849                           ;main.c: 105: Delay_Xms(1000);
  1850  019A  3000               	movlw	0
  1851  019B  0020               	movlb	0	; select bank0
  1852  019C  00B8               	movwf	Delay_Xms@delay+3
  1853  019D  3000               	movlw	0
  1854  019E  00B7               	movwf	Delay_Xms@delay+2
  1855  019F  3003               	movlw	3
  1856  01A0  00B6               	movwf	Delay_Xms@delay+1
  1857  01A1  30E8               	movlw	232
  1858  01A2  00B5               	movwf	Delay_Xms@delay
  1859  01A3  3182  2271  3181   	fcall	_Delay_Xms
  1860  01A6  0022               	movlb	2	; select bank2
  1861  01A7  140D               	bsf	13,0	;volatile
  1862  01A8  148D               	bsf	13,1	;volatile
  1863  01A9  0063               	sleep	;# 
  1864  01AA  0000               	nop	;# 
  1865  01AB  0000               	nop	;# 
  1866  01AC  0000               	nop	;# 
  1867  01AD  2997               	goto	l1503
  1868  01AE                     __end_of_main:	
  1869                           
  1870                           	psect	text1
  1871  02E5                     __ptext1:	
  1872 ;; *************** function _SYSTEM_Initialize *****************
  1873 ;; Defined at:
  1874 ;;		line 50 in file "mcc_generated_files/mcc.c"
  1875 ;; Parameters:    Size  Location     Type
  1876 ;;		None
  1877 ;; Auto vars:     Size  Location     Type
  1878 ;;		None
  1879 ;; Return value:  Size  Location     Type
  1880 ;;                  1    wreg      void 
  1881 ;; Registers used:
  1882 ;;		wreg, status,2, status,0, pclath, cstack
  1883 ;; Tracked objects:
  1884 ;;		On entry : 0/0
  1885 ;;		On exit  : 0/0
  1886 ;;		Unchanged: 0/0
  1887 ;; Data sizes:     COMMON   BANK0   BANK1   BANK2   BANK3   BANK4
  1888 ;;      Params:         0       0       0       0       0       0
  1889 ;;      Locals:         0       0       0       0       0       0
  1890 ;;      Temps:          0       0       0       0       0       0
  1891 ;;      Totals:         0       0       0       0       0       0
  1892 ;;Total ram usage:        0 bytes
  1893 ;; Hardware stack levels used:    1
  1894 ;; Hardware stack levels required when called:    8
  1895 ;; This function calls:
  1896 ;;		_ADC_Initialize
  1897 ;;		_FVR_Initialize
  1898 ;;		_OSCILLATOR_Initialize
  1899 ;;		_PIN_MANAGER_Initialize
  1900 ;;		_TMR2_Initialize
  1901 ;;		_WDT_Initialize
  1902 ;; This function is called by:
  1903 ;;		_main
  1904 ;; This function uses a non-reentrant model
  1905 ;;
  1906                           
  1907                           
  1908                           ;psect for function _SYSTEM_Initialize
  1909  02E5                     _SYSTEM_Initialize:	
  1910                           
  1911                           ;mcc.c: 53: PIN_MANAGER_Initialize();
  1912                           
  1913                           ;incstack = 0
  1914                           ; Regs used in _SYSTEM_Initialize: [wreg+status,2+status,0+pclath+cstack]
  1915  02E5  3182  229C  3182   	fcall	_PIN_MANAGER_Initialize
  1916                           
  1917                           ;mcc.c: 54: OSCILLATOR_Initialize();
  1918  02E8  3183  2347  3182   	fcall	_OSCILLATOR_Initialize
  1919                           
  1920                           ;mcc.c: 55: WDT_Initialize();
  1921  02EB  3183  2376  3182   	fcall	_WDT_Initialize
  1922                           
  1923                           ;mcc.c: 56: TMR2_Initialize();
  1924  02EE  3182  22F7  3182   	fcall	_TMR2_Initialize
  1925                           
  1926                           ;mcc.c: 57: FVR_Initialize();
  1927  02F1  3183  237A  3182   	fcall	_FVR_Initialize
  1928                           
  1929                           ;mcc.c: 58: ADC_Initialize();
  1930  02F4  3183  2326         	fcall	_ADC_Initialize
  1931  02F6  0008               	return
  1932  02F7                     __end_of_SYSTEM_Initialize:	
  1933                           
  1934                           	psect	text2
  1935  0376                     __ptext2:	
  1936 ;; *************** function _WDT_Initialize *****************
  1937 ;; Defined at:
  1938 ;;		line 71 in file "mcc_generated_files/mcc.c"
  1939 ;; Parameters:    Size  Location     Type
  1940 ;;		None
  1941 ;; Auto vars:     Size  Location     Type
  1942 ;;		None
  1943 ;; Return value:  Size  Location     Type
  1944 ;;                  1    wreg      void 
  1945 ;; Registers used:
  1946 ;;		wreg
  1947 ;; Tracked objects:
  1948 ;;		On entry : 0/0
  1949 ;;		On exit  : 0/0
  1950 ;;		Unchanged: 0/0
  1951 ;; Data sizes:     COMMON   BANK0   BANK1   BANK2   BANK3   BANK4
  1952 ;;      Params:         0       0       0       0       0       0
  1953 ;;      Locals:         0       0       0       0       0       0
  1954 ;;      Temps:          0       0       0       0       0       0
  1955 ;;      Totals:         0       0       0       0       0       0
  1956 ;;Total ram usage:        0 bytes
  1957 ;; Hardware stack levels used:    1
  1958 ;; Hardware stack levels required when called:    6
  1959 ;; This function calls:
  1960 ;;		Nothing
  1961 ;; This function is called by:
  1962 ;;		_SYSTEM_Initialize
  1963 ;; This function uses a non-reentrant model
  1964 ;;
  1965                           
  1966                           
  1967                           ;psect for function _WDT_Initialize
  1968  0376                     _WDT_Initialize:	
  1969                           
  1970                           ;mcc.c: 74: WDTCON = 0x16;
  1971                           
  1972                           ;incstack = 0
  1973                           ; Regs used in _WDT_Initialize: [wreg]
  1974  0376  3016               	movlw	22
  1975  0377  0021               	movlb	1	; select bank1
  1976  0378  0097               	movwf	23	;volatile
  1977  0379  0008               	return
  1978  037A                     __end_of_WDT_Initialize:	
  1979                           
  1980                           	psect	text3
  1981  02F7                     __ptext3:	
  1982 ;; *************** function _TMR2_Initialize *****************
  1983 ;; Defined at:
  1984 ;;		line 65 in file "mcc_generated_files/tmr2.c"
  1985 ;; Parameters:    Size  Location     Type
  1986 ;;		None
  1987 ;; Auto vars:     Size  Location     Type
  1988 ;;		None
  1989 ;; Return value:  Size  Location     Type
  1990 ;;                  1    wreg      void 
  1991 ;; Registers used:
  1992 ;;		wreg, status,2, status,0, pclath, cstack
  1993 ;; Tracked objects:
  1994 ;;		On entry : 0/0
  1995 ;;		On exit  : 0/0
  1996 ;;		Unchanged: 0/0
  1997 ;; Data sizes:     COMMON   BANK0   BANK1   BANK2   BANK3   BANK4
  1998 ;;      Params:         0       0       0       0       0       0
  1999 ;;      Locals:         0       0       0       0       0       0
  2000 ;;      Temps:          0       0       0       0       0       0
  2001 ;;      Totals:         0       0       0       0       0       0
  2002 ;;Total ram usage:        0 bytes
  2003 ;; Hardware stack levels used:    1
  2004 ;; Hardware stack levels required when called:    7
  2005 ;; This function calls:
  2006 ;;		_TMR2_SetInterruptHandler
  2007 ;; This function is called by:
  2008 ;;		_SYSTEM_Initialize
  2009 ;; This function uses a non-reentrant model
  2010 ;;
  2011                           
  2012                           
  2013                           ;psect for function _TMR2_Initialize
  2014  02F7                     _TMR2_Initialize:	
  2015                           
  2016                           ;tmr2.c: 70: PR2 = 0x07;
  2017                           
  2018                           ;incstack = 0
  2019                           ; Regs used in _TMR2_Initialize: [wreg+status,2+status,0+pclath+cstack]
  2020  02F7  3007               	movlw	7
  2021  02F8  0020               	movlb	0	; select bank0
  2022  02F9  009B               	movwf	27	;volatile
  2023                           
  2024                           ;tmr2.c: 73: TMR2 = 0x00;
  2025  02FA  019A               	clrf	26	;volatile
  2026                           
  2027                           ;tmr2.c: 76: PIR1bits.TMR2IF = 0;
  2028  02FB  1091               	bcf	17,1	;volatile
  2029                           
  2030                           ;tmr2.c: 79: PIE1bits.TMR2IE = 1;
  2031  02FC  0021               	movlb	1	; select bank1
  2032  02FD  1491               	bsf	17,1	;volatile
  2033                           
  2034                           ;tmr2.c: 82: TMR2_SetInterruptHandler(TMR2_DefaultInterruptHandler);
  2035  02FE  3085               	movlw	low _TMR2_DefaultInterruptHandler
  2036  02FF  0020               	movlb	0	; select bank0
  2037  0300  00B5               	movwf	TMR2_SetInterruptHandler@InterruptHandler
  2038  0301  3003               	movlw	high _TMR2_DefaultInterruptHandler
  2039  0302  00B6               	movwf	TMR2_SetInterruptHandler@InterruptHandler+1
  2040  0303  3183  234E         	fcall	_TMR2_SetInterruptHandler
  2041                           
  2042                           ;tmr2.c: 85: T2CON = 0x23;
  2043  0305  3023               	movlw	35
  2044  0306  0020               	movlb	0	; select bank0
  2045  0307  009C               	movwf	28	;volatile
  2046  0308  0008               	return
  2047  0309                     __end_of_TMR2_Initialize:	
  2048                           
  2049                           	psect	text4
  2050  034E                     __ptext4:	
  2051 ;; *************** function _TMR2_SetInterruptHandler *****************
  2052 ;; Defined at:
  2053 ;;		line 148 in file "mcc_generated_files/tmr2.c"
  2054 ;; Parameters:    Size  Location     Type
  2055 ;;  InterruptHan    2   21[BANK0 ] PTR FTN()void 
  2056 ;;		 -> TMR2_DefaultInterruptHandler(1), 
  2057 ;; Auto vars:     Size  Location     Type
  2058 ;;		None
  2059 ;; Return value:  Size  Location     Type
  2060 ;;                  1    wreg      void 
  2061 ;; Registers used:
  2062 ;;		wreg
  2063 ;; Tracked objects:
  2064 ;;		On entry : 0/0
  2065 ;;		On exit  : 0/0
  2066 ;;		Unchanged: 0/0
  2067 ;; Data sizes:     COMMON   BANK0   BANK1   BANK2   BANK3   BANK4
  2068 ;;      Params:         0       2       0       0       0       0
  2069 ;;      Locals:         0       0       0       0       0       0
  2070 ;;      Temps:          0       0       0       0       0       0
  2071 ;;      Totals:         0       2       0       0       0       0
  2072 ;;Total ram usage:        2 bytes
  2073 ;; Hardware stack levels used:    1
  2074 ;; Hardware stack levels required when called:    6
  2075 ;; This function calls:
  2076 ;;		Nothing
  2077 ;; This function is called by:
  2078 ;;		_TMR2_Initialize
  2079 ;; This function uses a non-reentrant model
  2080 ;;
  2081                           
  2082                           
  2083                           ;psect for function _TMR2_SetInterruptHandler
  2084  034E                     _TMR2_SetInterruptHandler:	
  2085                           
  2086                           ;tmr2.c: 149: TMR2_InterruptHandler = InterruptHandler;
  2087                           
  2088                           ;incstack = 0
  2089                           ; Regs used in _TMR2_SetInterruptHandler: [wreg]
  2090  034E  0020               	movlb	0	; select bank0
  2091  034F  0836               	movf	TMR2_SetInterruptHandler@InterruptHandler+1,w
  2092  0350  00C7               	movwf	_TMR2_InterruptHandler+1
  2093  0351  0835               	movf	TMR2_SetInterruptHandler@InterruptHandler,w
  2094  0352  00C6               	movwf	_TMR2_InterruptHandler
  2095  0353  0008               	return
  2096  0354                     __end_of_TMR2_SetInterruptHandler:	
  2097                           
  2098                           	psect	text5
  2099  029C                     __ptext5:	
  2100 ;; *************** function _PIN_MANAGER_Initialize *****************
  2101 ;; Defined at:
  2102 ;;		line 57 in file "mcc_generated_files/pin_manager.c"
  2103 ;; Parameters:    Size  Location     Type
  2104 ;;		None
  2105 ;; Auto vars:     Size  Location     Type
  2106 ;;		None
  2107 ;; Return value:  Size  Location     Type
  2108 ;;                  1    wreg      void 
  2109 ;; Registers used:
  2110 ;;		wreg, status,2, status,0, pclath, cstack
  2111 ;; Tracked objects:
  2112 ;;		On entry : 0/0
  2113 ;;		On exit  : 0/0
  2114 ;;		Unchanged: 0/0
  2115 ;; Data sizes:     COMMON   BANK0   BANK1   BANK2   BANK3   BANK4
  2116 ;;      Params:         0       0       0       0       0       0
  2117 ;;      Locals:         0       0       0       0       0       0
  2118 ;;      Temps:          0       0       0       0       0       0
  2119 ;;      Totals:         0       0       0       0       0       0
  2120 ;;Total ram usage:        0 bytes
  2121 ;; Hardware stack levels used:    1
  2122 ;; Hardware stack levels required when called:    7
  2123 ;; This function calls:
  2124 ;;		_IOCBF5_SetInterruptHandler
  2125 ;; This function is called by:
  2126 ;;		_SYSTEM_Initialize
  2127 ;; This function uses a non-reentrant model
  2128 ;;
  2129                           
  2130                           
  2131                           ;psect for function _PIN_MANAGER_Initialize
  2132  029C                     _PIN_MANAGER_Initialize:	
  2133                           
  2134                           ;pin_manager.c: 62: LATA = 0x0C;
  2135                           
  2136                           ;incstack = 0
  2137                           ; Regs used in _PIN_MANAGER_Initialize: [wreg+status,2+status,0+pclath+cstack]
  2138  029C  300C               	movlw	12
  2139  029D  0022               	movlb	2	; select bank2
  2140  029E  008C               	movwf	12	;volatile
  2141                           
  2142                           ;pin_manager.c: 63: LATB = 0x03;
  2143  029F  3003               	movlw	3
  2144  02A0  008D               	movwf	13	;volatile
  2145                           
  2146                           ;pin_manager.c: 68: TRISA = 0xF3;
  2147  02A1  30F3               	movlw	243
  2148  02A2  0021               	movlb	1	; select bank1
  2149  02A3  008C               	movwf	12	;volatile
  2150                           
  2151                           ;pin_manager.c: 69: TRISB = 0xE4;
  2152  02A4  30E4               	movlw	228
  2153  02A5  008D               	movwf	13	;volatile
  2154                           
  2155                           ;pin_manager.c: 74: ANSELB = 0x06;
  2156  02A6  3006               	movlw	6
  2157  02A7  0023               	movlb	3	; select bank3
  2158  02A8  008D               	movwf	13	;volatile
  2159                           
  2160                           ;pin_manager.c: 75: ANSELA = 0x00;
  2161  02A9  018C               	clrf	12	;volatile
  2162                           
  2163                           ;pin_manager.c: 80: WPUB = 0x00;
  2164  02AA  0024               	movlb	4	; select bank4
  2165  02AB  018D               	clrf	13	;volatile
  2166                           
  2167                           ;pin_manager.c: 81: WPUA = 0x00;
  2168  02AC  018C               	clrf	12	;volatile
  2169                           
  2170                           ;pin_manager.c: 82: OPTION_REGbits.nWPUEN = 1;
  2171  02AD  0021               	movlb	1	; select bank1
  2172  02AE  1795               	bsf	21,7	;volatile
  2173                           
  2174                           ;pin_manager.c: 89: APFCON0 = 0x00;
  2175  02AF  0022               	movlb	2	; select bank2
  2176  02B0  019D               	clrf	29	;volatile
  2177                           
  2178                           ;pin_manager.c: 90: APFCON1 = 0x00;
  2179  02B1  019E               	clrf	30	;volatile
  2180                           
  2181                           ;pin_manager.c: 96: IOCBFbits.IOCBF5 = 0;
  2182  02B2  0027               	movlb	7	; select bank7
  2183  02B3  1296               	bcf	22,5	;volatile
  2184                           
  2185                           ;pin_manager.c: 98: IOCBNbits.IOCBN5 = 1;
  2186  02B4  1695               	bsf	21,5	;volatile
  2187                           
  2188                           ;pin_manager.c: 100: IOCBPbits.IOCBP5 = 1;
  2189  02B5  1694               	bsf	20,5	;volatile
  2190                           
  2191                           ;pin_manager.c: 105: IOCBF5_SetInterruptHandler(IOCBF5_DefaultInterruptHandler);
  2192  02B6  3086               	movlw	low _IOCBF5_DefaultInterruptHandler
  2193  02B7  0020               	movlb	0	; select bank0
  2194  02B8  00B5               	movwf	IOCBF5_SetInterruptHandler@InterruptHandler
  2195  02B9  3003               	movlw	high _IOCBF5_DefaultInterruptHandler
  2196  02BA  00B6               	movwf	IOCBF5_SetInterruptHandler@InterruptHandler+1
  2197  02BB  3183  2354         	fcall	_IOCBF5_SetInterruptHandler
  2198                           
  2199                           ;pin_manager.c: 108: INTCONbits.IOCIE = 1;
  2200  02BD  158B               	bsf	11,3	;volatile
  2201  02BE  0008               	return
  2202  02BF                     __end_of_PIN_MANAGER_Initialize:	
  2203                           
  2204                           	psect	text6
  2205  0354                     __ptext6:	
  2206 ;; *************** function _IOCBF5_SetInterruptHandler *****************
  2207 ;; Defined at:
  2208 ;;		line 139 in file "mcc_generated_files/pin_manager.c"
  2209 ;; Parameters:    Size  Location     Type
  2210 ;;  InterruptHan    2   21[BANK0 ] PTR FTN()void 
  2211 ;;		 -> VT_ISR(1), IOCBF5_DefaultInterruptHandler(1), 
  2212 ;; Auto vars:     Size  Location     Type
  2213 ;;		None
  2214 ;; Return value:  Size  Location     Type
  2215 ;;                  1    wreg      void 
  2216 ;; Registers used:
  2217 ;;		wreg
  2218 ;; Tracked objects:
  2219 ;;		On entry : 0/0
  2220 ;;		On exit  : 0/0
  2221 ;;		Unchanged: 0/0
  2222 ;; Data sizes:     COMMON   BANK0   BANK1   BANK2   BANK3   BANK4
  2223 ;;      Params:         0       2       0       0       0       0
  2224 ;;      Locals:         0       0       0       0       0       0
  2225 ;;      Temps:          0       0       0       0       0       0
  2226 ;;      Totals:         0       2       0       0       0       0
  2227 ;;Total ram usage:        2 bytes
  2228 ;; Hardware stack levels used:    1
  2229 ;; Hardware stack levels required when called:    6
  2230 ;; This function calls:
  2231 ;;		Nothing
  2232 ;; This function is called by:
  2233 ;;		_PIN_MANAGER_Initialize
  2234 ;;		_main
  2235 ;; This function uses a non-reentrant model
  2236 ;;
  2237                           
  2238                           
  2239                           ;psect for function _IOCBF5_SetInterruptHandler
  2240  0354                     _IOCBF5_SetInterruptHandler:	
  2241                           
  2242                           ;pin_manager.c: 140: IOCBF5_InterruptHandler = InterruptHandler;
  2243                           
  2244                           ;incstack = 0
  2245                           ; Regs used in _IOCBF5_SetInterruptHandler: [wreg]
  2246  0354  0020               	movlb	0	; select bank0
  2247  0355  0836               	movf	IOCBF5_SetInterruptHandler@InterruptHandler+1,w
  2248  0356  00C5               	movwf	_IOCBF5_InterruptHandler+1
  2249  0357  0835               	movf	IOCBF5_SetInterruptHandler@InterruptHandler,w
  2250  0358  00C4               	movwf	_IOCBF5_InterruptHandler
  2251  0359  0008               	return
  2252  035A                     __end_of_IOCBF5_SetInterruptHandler:	
  2253                           
  2254                           	psect	text7
  2255  0347                     __ptext7:	
  2256 ;; *************** function _OSCILLATOR_Initialize *****************
  2257 ;; Defined at:
  2258 ;;		line 61 in file "mcc_generated_files/mcc.c"
  2259 ;; Parameters:    Size  Location     Type
  2260 ;;		None
  2261 ;; Auto vars:     Size  Location     Type
  2262 ;;		None
  2263 ;; Return value:  Size  Location     Type
  2264 ;;                  1    wreg      void 
  2265 ;; Registers used:
  2266 ;;		wreg, status,2
  2267 ;; Tracked objects:
  2268 ;;		On entry : 0/0
  2269 ;;		On exit  : 0/0
  2270 ;;		Unchanged: 0/0
  2271 ;; Data sizes:     COMMON   BANK0   BANK1   BANK2   BANK3   BANK4
  2272 ;;      Params:         0       0       0       0       0       0
  2273 ;;      Locals:         0       0       0       0       0       0
  2274 ;;      Temps:          0       0       0       0       0       0
  2275 ;;      Totals:         0       0       0       0       0       0
  2276 ;;Total ram usage:        0 bytes
  2277 ;; Hardware stack levels used:    1
  2278 ;; Hardware stack levels required when called:    6
  2279 ;; This function calls:
  2280 ;;		Nothing
  2281 ;; This function is called by:
  2282 ;;		_SYSTEM_Initialize
  2283 ;; This function uses a non-reentrant model
  2284 ;;
  2285                           
  2286                           
  2287                           ;psect for function _OSCILLATOR_Initialize
  2288  0347                     _OSCILLATOR_Initialize:	
  2289                           
  2290                           ;mcc.c: 64: OSCCON = 0x78;
  2291                           
  2292                           ;incstack = 0
  2293                           ; Regs used in _OSCILLATOR_Initialize: [wreg+status,2]
  2294  0347  3078               	movlw	120
  2295  0348  0021               	movlb	1	; select bank1
  2296  0349  0099               	movwf	25	;volatile
  2297                           
  2298                           ;mcc.c: 66: OSCTUNE = 0x00;
  2299  034A  0198               	clrf	24	;volatile
  2300                           
  2301                           ;mcc.c: 68: BORCON = 0x00;
  2302  034B  0022               	movlb	2	; select bank2
  2303  034C  0196               	clrf	22	;volatile
  2304  034D  0008               	return
  2305  034E                     __end_of_OSCILLATOR_Initialize:	
  2306                           
  2307                           	psect	text8
  2308  037A                     __ptext8:	
  2309 ;; *************** function _FVR_Initialize *****************
  2310 ;; Defined at:
  2311 ;;		line 58 in file "mcc_generated_files/fvr.c"
  2312 ;; Parameters:    Size  Location     Type
  2313 ;;		None
  2314 ;; Auto vars:     Size  Location     Type
  2315 ;;		None
  2316 ;; Return value:  Size  Location     Type
  2317 ;;                  1    wreg      void 
  2318 ;; Registers used:
  2319 ;;		wreg
  2320 ;; Tracked objects:
  2321 ;;		On entry : 0/0
  2322 ;;		On exit  : 0/0
  2323 ;;		Unchanged: 0/0
  2324 ;; Data sizes:     COMMON   BANK0   BANK1   BANK2   BANK3   BANK4
  2325 ;;      Params:         0       0       0       0       0       0
  2326 ;;      Locals:         0       0       0       0       0       0
  2327 ;;      Temps:          0       0       0       0       0       0
  2328 ;;      Totals:         0       0       0       0       0       0
  2329 ;;Total ram usage:        0 bytes
  2330 ;; Hardware stack levels used:    1
  2331 ;; Hardware stack levels required when called:    6
  2332 ;; This function calls:
  2333 ;;		Nothing
  2334 ;; This function is called by:
  2335 ;;		_SYSTEM_Initialize
  2336 ;; This function uses a non-reentrant model
  2337 ;;
  2338                           
  2339                           
  2340                           ;psect for function _FVR_Initialize
  2341  037A                     _FVR_Initialize:	
  2342                           
  2343                           ;fvr.c: 61: FVRCON = 0x82;
  2344                           
  2345                           ;incstack = 0
  2346                           ; Regs used in _FVR_Initialize: [wreg]
  2347  037A  3082               	movlw	130
  2348  037B  0022               	movlb	2	; select bank2
  2349  037C  0097               	movwf	23	;volatile
  2350  037D  0008               	return
  2351  037E                     __end_of_FVR_Initialize:	
  2352                           
  2353                           	psect	text9
  2354  0326                     __ptext9:	
  2355 ;; *************** function _ADC_Initialize *****************
  2356 ;; Defined at:
  2357 ;;		line 64 in file "mcc_generated_files/adc.c"
  2358 ;; Parameters:    Size  Location     Type
  2359 ;;		None
  2360 ;; Auto vars:     Size  Location     Type
  2361 ;;		None
  2362 ;; Return value:  Size  Location     Type
  2363 ;;                  1    wreg      void 
  2364 ;; Registers used:
  2365 ;;		wreg, status,2, status,0, pclath, cstack
  2366 ;; Tracked objects:
  2367 ;;		On entry : 0/0
  2368 ;;		On exit  : 0/0
  2369 ;;		Unchanged: 0/0
  2370 ;; Data sizes:     COMMON   BANK0   BANK1   BANK2   BANK3   BANK4
  2371 ;;      Params:         0       0       0       0       0       0
  2372 ;;      Locals:         0       0       0       0       0       0
  2373 ;;      Temps:          0       0       0       0       0       0
  2374 ;;      Totals:         0       0       0       0       0       0
  2375 ;;Total ram usage:        0 bytes
  2376 ;; Hardware stack levels used:    1
  2377 ;; Hardware stack levels required when called:    7
  2378 ;; This function calls:
  2379 ;;		_ADC_SelectChannel
  2380 ;; This function is called by:
  2381 ;;		_SYSTEM_Initialize
  2382 ;; This function uses a non-reentrant model
  2383 ;;
  2384                           
  2385                           
  2386                           ;psect for function _ADC_Initialize
  2387  0326                     _ADC_Initialize:	
  2388                           
  2389                           ;adc.c: 69: ADCON0 = 0x01;
  2390                           
  2391                           ;incstack = 0
  2392                           ; Regs used in _ADC_Initialize: [wreg+status,2+status,0+pclath+cstack]
  2393  0326  3001               	movlw	1
  2394  0327  0021               	movlb	1	; select bank1
  2395  0328  009D               	movwf	29	;volatile
  2396                           
  2397                           ;adc.c: 72: ADCON1 = 0xE3;
  2398  0329  30E3               	movlw	227
  2399  032A  009E               	movwf	30	;volatile
  2400                           
  2401                           ;adc.c: 75: ADRESL = 0x00;
  2402  032B  019B               	clrf	27	;volatile
  2403                           
  2404                           ;adc.c: 78: ADRESH = 0x00;
  2405  032C  019C               	clrf	28	;volatile
  2406                           
  2407                           ;adc.c: 81: PIE1bits.ADIE = 1;
  2408  032D  1711               	bsf	17,6	;volatile
  2409                           
  2410                           ;adc.c: 83: ADC_SelectChannel(BATTERY_LVL);
  2411  032E  300A               	movlw	10
  2412  032F  3183  2309         	fcall	_ADC_SelectChannel
  2413  0331  0008               	return
  2414  0332                     __end_of_ADC_Initialize:	
  2415                           
  2416                           	psect	text10
  2417  0309                     __ptext10:	
  2418 ;; *************** function _ADC_SelectChannel *****************
  2419 ;; Defined at:
  2420 ;;		line 86 in file "mcc_generated_files/adc.c"
  2421 ;; Parameters:    Size  Location     Type
  2422 ;;  channel         1    wreg     enum E2331
  2423 ;; Auto vars:     Size  Location     Type
  2424 ;;  channel         1   22[BANK0 ] enum E2331
  2425 ;; Return value:  Size  Location     Type
  2426 ;;                  1    wreg      void 
  2427 ;; Registers used:
  2428 ;;		wreg, status,2, status,0
  2429 ;; Tracked objects:
  2430 ;;		On entry : 0/0
  2431 ;;		On exit  : 0/0
  2432 ;;		Unchanged: 0/0
  2433 ;; Data sizes:     COMMON   BANK0   BANK1   BANK2   BANK3   BANK4
  2434 ;;      Params:         0       0       0       0       0       0
  2435 ;;      Locals:         0       1       0       0       0       0
  2436 ;;      Temps:          0       1       0       0       0       0
  2437 ;;      Totals:         0       2       0       0       0       0
  2438 ;;Total ram usage:        2 bytes
  2439 ;; Hardware stack levels used:    1
  2440 ;; Hardware stack levels required when called:    6
  2441 ;; This function calls:
  2442 ;;		Nothing
  2443 ;; This function is called by:
  2444 ;;		_ADC_Initialize
  2445 ;; This function uses a non-reentrant model
  2446 ;;
  2447                           
  2448                           
  2449                           ;psect for function _ADC_SelectChannel
  2450  0309                     _ADC_SelectChannel:	
  2451                           
  2452                           ;incstack = 0
  2453                           ; Regs used in _ADC_SelectChannel: [wreg+status,2+status,0]
  2454                           ;ADC_SelectChannel@channel stored from wreg
  2455  0309  0020               	movlb	0	; select bank0
  2456  030A  00B6               	movwf	ADC_SelectChannel@channel
  2457                           
  2458                           ;adc.c: 89: ADCON0bits.CHS = channel;
  2459  030B  0836               	movf	ADC_SelectChannel@channel,w
  2460  030C  00B5               	movwf	??_ADC_SelectChannel
  2461  030D  0DB5               	rlf	??_ADC_SelectChannel,f
  2462  030E  0DB5               	rlf	??_ADC_SelectChannel,f
  2463  030F  0021               	movlb	1	; select bank1
  2464  0310  081D               	movf	29,w	;volatile
  2465  0311  0020               	movlb	0	; select bank0
  2466  0312  0635               	xorwf	??_ADC_SelectChannel,w
  2467  0313  3983               	andlw	-125
  2468  0314  0635               	xorwf	??_ADC_SelectChannel,w
  2469  0315  0021               	movlb	1	; select bank1
  2470  0316  009D               	movwf	29	;volatile
  2471                           
  2472                           ;adc.c: 91: ADCON0bits.ADON = 1;
  2473  0317  141D               	bsf	29,0	;volatile
  2474  0318  0008               	return
  2475  0319                     __end_of_ADC_SelectChannel:	
  2476                           
  2477                           	psect	text11
  2478  0271                     __ptext11:	
  2479 ;; *************** function _Delay_Xms *****************
  2480 ;; Defined at:
  2481 ;;		line 42 in file "main.c"
  2482 ;; Parameters:    Size  Location     Type
  2483 ;;  delay           4   21[BANK0 ] long 
  2484 ;; Auto vars:     Size  Location     Type
  2485 ;;  i               4   26[BANK0 ] long 
  2486 ;; Return value:  Size  Location     Type
  2487 ;;                  1    wreg      void 
  2488 ;; Registers used:
  2489 ;;		wreg
  2490 ;; Tracked objects:
  2491 ;;		On entry : 0/0
  2492 ;;		On exit  : 0/0
  2493 ;;		Unchanged: 0/0
  2494 ;; Data sizes:     COMMON   BANK0   BANK1   BANK2   BANK3   BANK4
  2495 ;;      Params:         0       4       0       0       0       0
  2496 ;;      Locals:         0       4       0       0       0       0
  2497 ;;      Temps:          0       1       0       0       0       0
  2498 ;;      Totals:         0       9       0       0       0       0
  2499 ;;Total ram usage:        9 bytes
  2500 ;; Hardware stack levels used:    1
  2501 ;; Hardware stack levels required when called:    6
  2502 ;; This function calls:
  2503 ;;		Nothing
  2504 ;; This function is called by:
  2505 ;;		_main
  2506 ;; This function uses a non-reentrant model
  2507 ;;
  2508                           
  2509                           
  2510                           ;psect for function _Delay_Xms
  2511  0271                     _Delay_Xms:	
  2512                           
  2513                           ;main.c: 43: for(long i = 0; i < delay; i++) {
  2514                           
  2515                           ;incstack = 0
  2516                           ; Regs used in _Delay_Xms: [wreg]
  2517  0271  3000               	movlw	0
  2518  0272  0020               	movlb	0	; select bank0
  2519  0273  00BD               	movwf	Delay_Xms@i+3
  2520  0274  3000               	movlw	0
  2521  0275  00BC               	movwf	Delay_Xms@i+2
  2522  0276  3000               	movlw	0
  2523  0277  00BB               	movwf	Delay_Xms@i+1
  2524  0278  3000               	movlw	0
  2525  0279  00BA               	movwf	Delay_Xms@i
  2526  027A                     l256:	
  2527  027A  083D               	movf	Delay_Xms@i+3,w
  2528  027B  3A80               	xorlw	128
  2529  027C  00B9               	movwf	??_Delay_Xms
  2530  027D  0838               	movf	Delay_Xms@delay+3,w
  2531  027E  3A80               	xorlw	128
  2532  027F  0239               	subwf	??_Delay_Xms,w
  2533  0280  1D03               	skipz
  2534  0281  2A8C               	goto	u843
  2535  0282  0837               	movf	Delay_Xms@delay+2,w
  2536  0283  023C               	subwf	Delay_Xms@i+2,w
  2537  0284  1D03               	skipz
  2538  0285  2A8C               	goto	u843
  2539  0286  0836               	movf	Delay_Xms@delay+1,w
  2540  0287  023B               	subwf	Delay_Xms@i+1,w
  2541  0288  1D03               	skipz
  2542  0289  2A8C               	goto	u843
  2543  028A  0835               	movf	Delay_Xms@delay,w
  2544  028B  023A               	subwf	Delay_Xms@i,w
  2545  028C                     u843:	
  2546  028C  1803               	btfsc	3,0
  2547  028D  0008               	return
  2548                           
  2549                           ;main.c: 44: _delay((unsigned long)((1)*(1000000/4000.0)));
  2550  028E  3053               	movlw	83
  2551  028F                     u927:	
  2552  028F  0B89               	decfsz	9,f
  2553  0290  2A8F               	goto	u927
  2554  0291  0000               	nop
  2555  0292  3001               	movlw	1
  2556  0293  0020               	movlb	0	; select bank0
  2557  0294  07BA               	addwf	Delay_Xms@i,f
  2558  0295  3000               	movlw	0
  2559  0296  3DBB               	addwfc	Delay_Xms@i+1,f
  2560  0297  3000               	movlw	0
  2561  0298  3DBC               	addwfc	Delay_Xms@i+2,f
  2562  0299  3000               	movlw	0
  2563  029A  3DBD               	addwfc	Delay_Xms@i+3,f
  2564  029B  2A7A               	goto	l256
  2565  029C                     __end_of_Delay_Xms:	
  2566                           
  2567                           	psect	text12
  2568  0381                     __ptext12:	
  2569 ;; *************** function _ADC_StartConversion *****************
  2570 ;; Defined at:
  2571 ;;		line 94 in file "mcc_generated_files/adc.c"
  2572 ;; Parameters:    Size  Location     Type
  2573 ;;		None
  2574 ;; Auto vars:     Size  Location     Type
  2575 ;;		None
  2576 ;; Return value:  Size  Location     Type
  2577 ;;                  1    wreg      void 
  2578 ;; Registers used:
  2579 ;;		None
  2580 ;; Tracked objects:
  2581 ;;		On entry : 0/0
  2582 ;;		On exit  : 0/0
  2583 ;;		Unchanged: 0/0
  2584 ;; Data sizes:     COMMON   BANK0   BANK1   BANK2   BANK3   BANK4
  2585 ;;      Params:         0       0       0       0       0       0
  2586 ;;      Locals:         0       0       0       0       0       0
  2587 ;;      Temps:          0       0       0       0       0       0
  2588 ;;      Totals:         0       0       0       0       0       0
  2589 ;;Total ram usage:        0 bytes
  2590 ;; Hardware stack levels used:    1
  2591 ;; Hardware stack levels required when called:    6
  2592 ;; This function calls:
  2593 ;;		Nothing
  2594 ;; This function is called by:
  2595 ;;		_main
  2596 ;; This function uses a non-reentrant model
  2597 ;;
  2598                           
  2599                           
  2600                           ;psect for function _ADC_StartConversion
  2601  0381                     _ADC_StartConversion:	
  2602                           
  2603                           ;adc.c: 97: ADCON0bits.GO_nDONE = 1;
  2604                           
  2605                           ;incstack = 0
  2606                           ; Regs used in _ADC_StartConversion: []
  2607  0381  0021               	movlb	1	; select bank1
  2608  0382  149D               	bsf	29,1	;volatile
  2609  0383  0008               	return
  2610  0384                     __end_of_ADC_StartConversion:	
  2611                           
  2612                           	psect	intentry
  2613  0004                     __pintentry:	
  2614 ;; *************** function _INTERRUPT_InterruptManager *****************
  2615 ;; Defined at:
  2616 ;;		line 52 in file "mcc_generated_files/interrupt_manager.c"
  2617 ;; Parameters:    Size  Location     Type
  2618 ;;		None
  2619 ;; Auto vars:     Size  Location     Type
  2620 ;;		None
  2621 ;; Return value:  Size  Location     Type
  2622 ;;                  1    wreg      void 
  2623 ;; Registers used:
  2624 ;;		wreg, status,2, status,0, pclath, cstack
  2625 ;; Tracked objects:
  2626 ;;		On entry : 0/0
  2627 ;;		On exit  : 0/0
  2628 ;;		Unchanged: 0/0
  2629 ;; Data sizes:     COMMON   BANK0   BANK1   BANK2   BANK3   BANK4
  2630 ;;      Params:         0       0       0       0       0       0
  2631 ;;      Locals:         0       0       0       0       0       0
  2632 ;;      Temps:          0       0       0       0       0       0
  2633 ;;      Totals:         0       0       0       0       0       0
  2634 ;;Total ram usage:        0 bytes
  2635 ;; Hardware stack levels used:    1
  2636 ;; Hardware stack levels required when called:    5
  2637 ;; This function calls:
  2638 ;;		_ADC_ISR
  2639 ;;		_PIN_MANAGER_IOC
  2640 ;;		_TMR2_ISR
  2641 ;; This function is called by:
  2642 ;;		Interrupt level 1
  2643 ;; This function uses a non-reentrant model
  2644 ;;
  2645                           
  2646  0004                     _INTERRUPT_InterruptManager:	
  2647                           
  2648                           ;incstack = 0
  2649  0004  147E               	bsf	126,0	;set compiler interrupt flag (level 1)
  2650                           
  2651                           ; Regs used in _INTERRUPT_InterruptManager: [wreg+status,2+status,0+pclath+cstack]
  2652  0005  3180               	pagesel	$
  2653                           
  2654                           ;interrupt_manager.c: 55: if(INTCONbits.IOCIE == 1 && INTCONbits.IOCIF == 1)
  2655  0006  198B               	btfsc	11,3	;volatile
  2656  0007  1C0B               	btfss	11,0	;volatile
  2657  0008  280D               	goto	i1l131
  2658                           
  2659                           ;interrupt_manager.c: 56: {;interrupt_manager.c: 57: PIN_MANAGER_IOC();
  2660  0009  3183  235A  3180   	fcall	_PIN_MANAGER_IOC
  2661                           
  2662                           ;interrupt_manager.c: 58: }
  2663  000C  2821               	goto	i1l139
  2664  000D                     i1l131:	
  2665                           
  2666                           ;interrupt_manager.c: 59: else if(INTCONbits.PEIE == 1)
  2667  000D  1F0B               	btfss	11,6	;volatile
  2668  000E  2821               	goto	i1l139
  2669                           
  2670                           ;interrupt_manager.c: 60: {;interrupt_manager.c: 61: if(PIE1bits.ADIE == 1 && PIR1bits.A
      +                          DIF == 1)
  2671  000F  0021               	movlb	1	; select bank1
  2672  0010  1F11               	btfss	17,6	;volatile
  2673  0011  2819               	goto	i1l134
  2674  0012  0020               	movlb	0	; select bank0
  2675  0013  1F11               	btfss	17,6	;volatile
  2676  0014  2819               	goto	i1l134
  2677                           
  2678                           ;interrupt_manager.c: 62: {;interrupt_manager.c: 63: ADC_ISR();
  2679  0015  3183  2371  3180   	fcall	_ADC_ISR
  2680                           
  2681                           ;interrupt_manager.c: 64: }
  2682  0018  2821               	goto	i1l139
  2683  0019                     i1l134:	
  2684                           
  2685                           ;interrupt_manager.c: 65: else if(PIE1bits.TMR2IE == 1 && PIR1bits.TMR2IF == 1)
  2686  0019  0021               	movlb	1	; select bank1
  2687  001A  1C91               	btfss	17,1	;volatile
  2688  001B  2821               	goto	i1l139
  2689  001C  0020               	movlb	0	; select bank0
  2690  001D  1C91               	btfss	17,1	;volatile
  2691  001E  2821               	goto	i1l139
  2692                           
  2693                           ;interrupt_manager.c: 66: {;interrupt_manager.c: 67: TMR2_ISR();
  2694  001F  3182  22BF         	fcall	_TMR2_ISR
  2695  0021                     i1l139:	
  2696                           ;interrupt_manager.c: 74: else;interrupt_manager.c: 75: {
  2697                           
  2698                           ;interrupt_manager.c: 68: }
  2699                           
  2700  0021  107E               	bcf	126,0	;clear compiler interrupt flag (level 1)
  2701  0022  0009               	retfie
  2702  0023                     __end_of_INTERRUPT_InterruptManager:	
  2703                           
  2704                           	psect	text14
  2705  02BF                     __ptext14:	
  2706 ;; *************** function _TMR2_ISR *****************
  2707 ;; Defined at:
  2708 ;;		line 120 in file "mcc_generated_files/tmr2.c"
  2709 ;; Parameters:    Size  Location     Type
  2710 ;;		None
  2711 ;; Auto vars:     Size  Location     Type
  2712 ;;		None
  2713 ;; Return value:  Size  Location     Type
  2714 ;;                  1    wreg      void 
  2715 ;; Registers used:
  2716 ;;		wreg, status,2, status,0, pclath, cstack
  2717 ;; Tracked objects:
  2718 ;;		On entry : 0/0
  2719 ;;		On exit  : 0/0
  2720 ;;		Unchanged: 0/0
  2721 ;; Data sizes:     COMMON   BANK0   BANK1   BANK2   BANK3   BANK4
  2722 ;;      Params:         0       0       0       0       0       0
  2723 ;;      Locals:         0       0       0       0       0       0
  2724 ;;      Temps:          0       0       0       0       0       0
  2725 ;;      Totals:         0       0       0       0       0       0
  2726 ;;Total ram usage:        0 bytes
  2727 ;; Hardware stack levels used:    1
  2728 ;; Hardware stack levels required when called:    2
  2729 ;; This function calls:
  2730 ;;		_TMR2_CallBack
  2731 ;; This function is called by:
  2732 ;;		_INTERRUPT_InterruptManager
  2733 ;; This function uses a non-reentrant model
  2734 ;;
  2735                           
  2736                           
  2737                           ;psect for function _TMR2_ISR
  2738  02BF                     _TMR2_ISR:	
  2739                           
  2740                           ;tmr2.c: 122: static volatile unsigned int CountCallBack = 0;;tmr2.c: 125: PIR1bits.TMR2
      +                          IF = 0;
  2741                           
  2742                           ;incstack = 0
  2743                           ; Regs used in _TMR2_ISR: [wreg+status,2+status,0+pclath+cstack]
  2744  02BF  0020               	movlb	0	; select bank0
  2745  02C0  1091               	bcf	17,1	;volatile
  2746                           
  2747                           ;tmr2.c: 128: if (++CountCallBack >= 10)
  2748  02C1  3001               	movlw	1
  2749  02C2  07BE               	addwf	TMR2_ISR@CountCallBack,f	;volatile
  2750  02C3  3000               	movlw	0
  2751  02C4  3DBF               	addwfc	TMR2_ISR@CountCallBack+1,f	;volatile
  2752  02C5  3000               	movlw	0
  2753  02C6  023F               	subwf	TMR2_ISR@CountCallBack+1,w	;volatile
  2754  02C7  300A               	movlw	10
  2755  02C8  1903               	skipnz
  2756  02C9  023E               	subwf	TMR2_ISR@CountCallBack,w	;volatile
  2757  02CA  1C03               	skipc
  2758  02CB  0008               	return
  2759                           
  2760                           ;tmr2.c: 129: {;tmr2.c: 131: TMR2_CallBack();
  2761  02CC  3183  2332         	fcall	_TMR2_CallBack
  2762                           
  2763                           ;tmr2.c: 134: CountCallBack = 0;
  2764  02CE  0020               	movlb	0	; select bank0
  2765  02CF  01BE               	clrf	TMR2_ISR@CountCallBack	;volatile
  2766  02D0  01BF               	clrf	TMR2_ISR@CountCallBack+1	;volatile
  2767  02D1  0008               	return
  2768  02D2                     __end_of_TMR2_ISR:	
  2769                           
  2770                           	psect	text15
  2771  0332                     __ptext15:	
  2772 ;; *************** function _TMR2_CallBack *****************
  2773 ;; Defined at:
  2774 ;;		line 138 in file "mcc_generated_files/tmr2.c"
  2775 ;; Parameters:    Size  Location     Type
  2776 ;;		None
  2777 ;; Auto vars:     Size  Location     Type
  2778 ;;		None
  2779 ;; Return value:  Size  Location     Type
  2780 ;;                  1    wreg      void 
  2781 ;; Registers used:
  2782 ;;		wreg, status,2, status,0, pclath, cstack
  2783 ;; Tracked objects:
  2784 ;;		On entry : 0/0
  2785 ;;		On exit  : 0/0
  2786 ;;		Unchanged: 0/0
  2787 ;; Data sizes:     COMMON   BANK0   BANK1   BANK2   BANK3   BANK4
  2788 ;;      Params:         0       0       0       0       0       0
  2789 ;;      Locals:         0       0       0       0       0       0
  2790 ;;      Temps:          0       0       0       0       0       0
  2791 ;;      Totals:         0       0       0       0       0       0
  2792 ;;Total ram usage:        0 bytes
  2793 ;; Hardware stack levels used:    1
  2794 ;; Hardware stack levels required when called:    1
  2795 ;; This function calls:
  2796 ;;		Absolute function
  2797 ;;		_TMR2_DefaultInterruptHandler
  2798 ;; This function is called by:
  2799 ;;		_TMR2_ISR
  2800 ;; This function uses a non-reentrant model
  2801 ;;
  2802                           
  2803                           
  2804                           ;psect for function _TMR2_CallBack
  2805  0332                     _TMR2_CallBack:	
  2806                           
  2807                           ;tmr2.c: 142: if(TMR2_InterruptHandler)
  2808                           
  2809                           ;incstack = 0
  2810                           ; Regs used in _TMR2_CallBack: [wreg+status,2+status,0+pclath+cstack]
  2811  0332  0020               	movlb	0	; select bank0
  2812  0333  0846               	movf	_TMR2_InterruptHandler,w
  2813  0334  0447               	iorwf	_TMR2_InterruptHandler+1,w
  2814  0335  1903               	btfsc	3,2
  2815  0336  0008               	return
  2816                           
  2817                           ;tmr2.c: 143: {;tmr2.c: 144: TMR2_InterruptHandler();
  2818  0337  0847               	movf	_TMR2_InterruptHandler+1,w
  2819  0338  008A               	movwf	10
  2820  0339  0846               	movf	_TMR2_InterruptHandler,w
  2821  033A  000A               	callw
  2822  033B  3183               	pagesel	$
  2823  033C  0008               	return
  2824  033D                     __end_of_TMR2_CallBack:	
  2825                           
  2826                           	psect	text16
  2827  0385                     __ptext16:	
  2828 ;; *************** function _TMR2_DefaultInterruptHandler *****************
  2829 ;; Defined at:
  2830 ;;		line 152 in file "mcc_generated_files/tmr2.c"
  2831 ;; Parameters:    Size  Location     Type
  2832 ;;		None
  2833 ;; Auto vars:     Size  Location     Type
  2834 ;;		None
  2835 ;; Return value:  Size  Location     Type
  2836 ;;                  1    wreg      void 
  2837 ;; Registers used:
  2838 ;;		None
  2839 ;; Tracked objects:
  2840 ;;		On entry : 0/0
  2841 ;;		On exit  : 0/0
  2842 ;;		Unchanged: 0/0
  2843 ;; Data sizes:     COMMON   BANK0   BANK1   BANK2   BANK3   BANK4
  2844 ;;      Params:         0       0       0       0       0       0
  2845 ;;      Locals:         0       0       0       0       0       0
  2846 ;;      Temps:          0       0       0       0       0       0
  2847 ;;      Totals:         0       0       0       0       0       0
  2848 ;;Total ram usage:        0 bytes
  2849 ;; Hardware stack levels used:    1
  2850 ;; This function calls:
  2851 ;;		Nothing
  2852 ;; This function is called by:
  2853 ;;		_TMR2_Initialize
  2854 ;;		_TMR2_CallBack
  2855 ;; This function uses a non-reentrant model
  2856 ;;
  2857                           
  2858                           
  2859                           ;psect for function _TMR2_DefaultInterruptHandler
  2860  0385                     _TMR2_DefaultInterruptHandler:	
  2861                           
  2862                           ;incstack = 0
  2863                           ; Regs used in _TMR2_DefaultInterruptHandler: []
  2864  0385  0008               	return
  2865  0386                     __end_of_TMR2_DefaultInterruptHandler:	
  2866                           
  2867                           	psect	text17
  2868  035A                     __ptext17:	
  2869 ;; *************** function _PIN_MANAGER_IOC *****************
  2870 ;; Defined at:
  2871 ;;		line 112 in file "mcc_generated_files/pin_manager.c"
  2872 ;; Parameters:    Size  Location     Type
  2873 ;;		None
  2874 ;; Auto vars:     Size  Location     Type
  2875 ;;		None
  2876 ;; Return value:  Size  Location     Type
  2877 ;;                  1    wreg      void 
  2878 ;; Registers used:
  2879 ;;		wreg, status,2, status,0, pclath, cstack
  2880 ;; Tracked objects:
  2881 ;;		On entry : 0/0
  2882 ;;		On exit  : 0/0
  2883 ;;		Unchanged: 0/0
  2884 ;; Data sizes:     COMMON   BANK0   BANK1   BANK2   BANK3   BANK4
  2885 ;;      Params:         0       0       0       0       0       0
  2886 ;;      Locals:         0       0       0       0       0       0
  2887 ;;      Temps:          0       0       0       0       0       0
  2888 ;;      Totals:         0       0       0       0       0       0
  2889 ;;Total ram usage:        0 bytes
  2890 ;; Hardware stack levels used:    1
  2891 ;; Hardware stack levels required when called:    4
  2892 ;; This function calls:
  2893 ;;		_IOCBF5_ISR
  2894 ;; This function is called by:
  2895 ;;		_INTERRUPT_InterruptManager
  2896 ;; This function uses a non-reentrant model
  2897 ;;
  2898                           
  2899                           
  2900                           ;psect for function _PIN_MANAGER_IOC
  2901  035A                     _PIN_MANAGER_IOC:	
  2902                           
  2903                           ;pin_manager.c: 115: if(IOCBFbits.IOCBF5 == 1)
  2904                           
  2905                           ;incstack = 0
  2906                           ; Regs used in _PIN_MANAGER_IOC: [wreg+status,2+status,0+pclath+cstack]
  2907  035A  0027               	movlb	7	; select bank7
  2908  035B  1E96               	btfss	22,5	;volatile
  2909  035C  0008               	return
  2910                           
  2911                           ;pin_manager.c: 116: {;pin_manager.c: 117: IOCBF5_ISR();
  2912  035D  3183  2319         	fcall	_IOCBF5_ISR
  2913  035F  0008               	return
  2914  0360                     __end_of_PIN_MANAGER_IOC:	
  2915                           
  2916                           	psect	text18
  2917  0319                     __ptext18:	
  2918 ;; *************** function _IOCBF5_ISR *****************
  2919 ;; Defined at:
  2920 ;;		line 124 in file "mcc_generated_files/pin_manager.c"
  2921 ;; Parameters:    Size  Location     Type
  2922 ;;		None
  2923 ;; Auto vars:     Size  Location     Type
  2924 ;;		None
  2925 ;; Return value:  Size  Location     Type
  2926 ;;                  1    wreg      void 
  2927 ;; Registers used:
  2928 ;;		wreg, status,2, status,0, pclath, cstack
  2929 ;; Tracked objects:
  2930 ;;		On entry : 0/0
  2931 ;;		On exit  : 0/0
  2932 ;;		Unchanged: 0/0
  2933 ;; Data sizes:     COMMON   BANK0   BANK1   BANK2   BANK3   BANK4
  2934 ;;      Params:         0       0       0       0       0       0
  2935 ;;      Locals:         0       0       0       0       0       0
  2936 ;;      Temps:          0       0       0       0       0       0
  2937 ;;      Totals:         0       0       0       0       0       0
  2938 ;;Total ram usage:        0 bytes
  2939 ;; Hardware stack levels used:    1
  2940 ;; Hardware stack levels required when called:    3
  2941 ;; This function calls:
  2942 ;;		Absolute function
  2943 ;;		_IOCBF5_DefaultInterruptHandler
  2944 ;;		_VT_ISR
  2945 ;; This function is called by:
  2946 ;;		_PIN_MANAGER_IOC
  2947 ;; This function uses a non-reentrant model
  2948 ;;
  2949                           
  2950                           
  2951                           ;psect for function _IOCBF5_ISR
  2952  0319                     _IOCBF5_ISR:	
  2953                           
  2954                           ;pin_manager.c: 129: if(IOCBF5_InterruptHandler)
  2955                           
  2956                           ;incstack = 0
  2957                           ; Regs used in _IOCBF5_ISR: [wreg+status,2+status,0+pclath+cstack]
  2958  0319  0020               	movlb	0	; select bank0
  2959  031A  0844               	movf	_IOCBF5_InterruptHandler,w
  2960  031B  0445               	iorwf	_IOCBF5_InterruptHandler+1,w
  2961  031C  1903               	btfsc	3,2
  2962  031D  2B23               	goto	i1l1447
  2963                           
  2964                           ;pin_manager.c: 130: {;pin_manager.c: 131: IOCBF5_InterruptHandler();
  2965  031E  0845               	movf	_IOCBF5_InterruptHandler+1,w
  2966  031F  008A               	movwf	10
  2967  0320  0844               	movf	_IOCBF5_InterruptHandler,w
  2968  0321  000A               	callw
  2969  0322  3183               	pagesel	$
  2970  0323                     i1l1447:	
  2971                           
  2972                           ;pin_manager.c: 132: };pin_manager.c: 133: IOCBFbits.IOCBF5 = 0;
  2973  0323  0027               	movlb	7	; select bank7
  2974  0324  1296               	bcf	22,5	;volatile
  2975  0325  0008               	return
  2976  0326                     __end_of_IOCBF5_ISR:	
  2977                           
  2978                           	psect	text19
  2979  0386                     __ptext19:	
  2980 ;; *************** function _IOCBF5_DefaultInterruptHandler *****************
  2981 ;; Defined at:
  2982 ;;		line 146 in file "mcc_generated_files/pin_manager.c"
  2983 ;; Parameters:    Size  Location     Type
  2984 ;;		None
  2985 ;; Auto vars:     Size  Location     Type
  2986 ;;		None
  2987 ;; Return value:  Size  Location     Type
  2988 ;;                  1    wreg      void 
  2989 ;; Registers used:
  2990 ;;		None
  2991 ;; Tracked objects:
  2992 ;;		On entry : 0/0
  2993 ;;		On exit  : 0/0
  2994 ;;		Unchanged: 0/0
  2995 ;; Data sizes:     COMMON   BANK0   BANK1   BANK2   BANK3   BANK4
  2996 ;;      Params:         0       0       0       0       0       0
  2997 ;;      Locals:         0       0       0       0       0       0
  2998 ;;      Temps:          0       0       0       0       0       0
  2999 ;;      Totals:         0       0       0       0       0       0
  3000 ;;Total ram usage:        0 bytes
  3001 ;; Hardware stack levels used:    1
  3002 ;; This function calls:
  3003 ;;		Nothing
  3004 ;; This function is called by:
  3005 ;;		_PIN_MANAGER_Initialize
  3006 ;;		_IOCBF5_ISR
  3007 ;; This function uses a non-reentrant model
  3008 ;;
  3009                           
  3010                           
  3011                           ;psect for function _IOCBF5_DefaultInterruptHandler
  3012  0386                     _IOCBF5_DefaultInterruptHandler:	
  3013                           
  3014                           ;incstack = 0
  3015                           ; Regs used in _IOCBF5_DefaultInterruptHandler: []
  3016  0386  0008               	return
  3017  0387                     __end_of_IOCBF5_DefaultInterruptHandler:	
  3018                           
  3019                           	psect	text20
  3020  0201                     __ptext20:	
  3021 ;; *************** function _VT_ISR *****************
  3022 ;; Defined at:
  3023 ;;		line 65 in file "main.c"
  3024 ;; Parameters:    Size  Location     Type
  3025 ;;		None
  3026 ;; Auto vars:     Size  Location     Type
  3027 ;;  code            2   12[COMMON] int 
  3028 ;; Return value:  Size  Location     Type
  3029 ;;                  1    wreg      void 
  3030 ;; Registers used:
  3031 ;;		wreg, status,2, status,0, pclath, cstack
  3032 ;; Tracked objects:
  3033 ;;		On entry : 0/0
  3034 ;;		On exit  : 0/0
  3035 ;;		Unchanged: 0/0
  3036 ;; Data sizes:     COMMON   BANK0   BANK1   BANK2   BANK3   BANK4
  3037 ;;      Params:         0       0       0       0       0       0
  3038 ;;      Locals:         2       0       0       0       0       0
  3039 ;;      Temps:         12       0       0       0       0       0
  3040 ;;      Totals:        14       0       0       0       0       0
  3041 ;;Total ram usage:       14 bytes
  3042 ;; Hardware stack levels used:    1
  3043 ;; Hardware stack levels required when called:    2
  3044 ;; This function calls:
  3045 ;;		_POWER_LED_OFF
  3046 ;;		_POWER_LED_ON
  3047 ;;		_POWER_LED_TOGGLE
  3048 ;; This function is called by:
  3049 ;;		_main
  3050 ;;		_IOCBF5_ISR
  3051 ;; This function uses a non-reentrant model
  3052 ;;
  3053                           
  3054                           
  3055                           ;psect for function _VT_ISR
  3056  0201                     _VT_ISR:	
  3057                           
  3058                           ;main.c: 67: int code = PORTAbits.RA1 + 2*PORTAbits.RA6 + 4*PORTAbits.RA7 + 8*PORTAbits.
      +                          RA0;
  3059                           
  3060                           ;incstack = 0
  3061                           ; Regs used in _VT_ISR: [wreg+status,2+status,0+pclath+cstack]
  3062  0201  0020               	movlb	0	; select bank0
  3063  0202  080C               	movf	12,w	;volatile
  3064  0203  3901               	andlw	1
  3065  0204  00F0               	movwf	??_VT_ISR
  3066  0205  01F1               	clrf	??_VT_ISR+1
  3067  0206  35F0               	lslf	??_VT_ISR,f
  3068  0207  0DF1               	rlf	??_VT_ISR+1,f
  3069  0208  35F0               	lslf	??_VT_ISR,f
  3070  0209  0DF1               	rlf	??_VT_ISR+1,f
  3071  020A  35F0               	lslf	??_VT_ISR,f
  3072  020B  0DF1               	rlf	??_VT_ISR+1,f
  3073  020C  0D0C               	rlf	12,w	;volatile
  3074  020D  0D0C               	rlf	12,w	;volatile
  3075  020E  3901               	andlw	1
  3076  020F  00F2               	movwf	??_VT_ISR+2
  3077  0210  01F3               	clrf	??_VT_ISR+3
  3078  0211  35F2               	lslf	??_VT_ISR+2,f
  3079  0212  0DF3               	rlf	??_VT_ISR+3,f
  3080  0213  35F2               	lslf	??_VT_ISR+2,f
  3081  0214  0DF3               	rlf	??_VT_ISR+3,f
  3082  0215  0E0C               	swapf	12,w	;volatile
  3083  0216  0C89               	rrf	9,f
  3084  0217  0C89               	rrf	9,f
  3085  0218  3901               	andlw	1
  3086  0219  00F4               	movwf	??_VT_ISR+4
  3087  021A  01F5               	clrf	??_VT_ISR+5
  3088  021B  35F4               	lslf	??_VT_ISR+4,f
  3089  021C  0DF5               	rlf	??_VT_ISR+5,f
  3090  021D  0C0C               	rrf	12,w	;volatile
  3091  021E  3901               	andlw	1
  3092  021F  0774               	addwf	??_VT_ISR+4,w
  3093  0220  00F6               	movwf	??_VT_ISR+6
  3094  0221  0875               	movf	??_VT_ISR+5,w
  3095  0222  1803               	skipnc
  3096  0223  0A75               	incf	??_VT_ISR+5,w
  3097  0224  00F7               	movwf	??_VT_ISR+7
  3098  0225  0872               	movf	??_VT_ISR+2,w
  3099  0226  0776               	addwf	??_VT_ISR+6,w
  3100  0227  00F8               	movwf	??_VT_ISR+8
  3101  0228  0873               	movf	??_VT_ISR+3,w
  3102  0229  3D77               	addwfc	??_VT_ISR+7,w
  3103  022A  00F9               	movwf	??_VT_ISR+9
  3104  022B  0870               	movf	??_VT_ISR,w
  3105  022C  0778               	addwf	??_VT_ISR+8,w
  3106  022D  00FA               	movwf	??_VT_ISR+10
  3107  022E  0871               	movf	??_VT_ISR+1,w
  3108  022F  3D79               	addwfc	??_VT_ISR+9,w
  3109  0230  00FB               	movwf	??_VT_ISR+11
  3110  0231  087A               	movf	??_VT_ISR+10,w
  3111  0232  00FC               	movwf	VT_ISR@code
  3112  0233  087B               	movf	??_VT_ISR+11,w
  3113  0234  00FD               	movwf	VT_ISR@code+1
  3114                           
  3115                           ;main.c: 68: if(code & A) {
  3116  0235  1DFC               	btfss	VT_ISR@code,3
  3117  0236  2A3A               	goto	i1l277
  3118                           
  3119                           ;main.c: 69: POWER_LED_ON();
  3120  0237  3183  2360         	fcall	_POWER_LED_ON
  3121                           
  3122                           ;main.c: 70: } else if(code & B) {
  3123  0239  0008               	return
  3124  023A                     i1l277:	
  3125  023A  1D7C               	btfss	VT_ISR@code,2
  3126  023B  2A3F               	goto	i1l279
  3127                           
  3128                           ;main.c: 71: POWER_LED_OFF();
  3129  023C  3183  236C         	fcall	_POWER_LED_OFF
  3130                           
  3131                           ;main.c: 73: } else if(code & D) {
  3132  023E  0008               	return
  3133  023F                     i1l279:	
  3134  023F  1C7C               	btfss	VT_ISR@code,0
  3135  0240  0008               	return
  3136                           
  3137                           ;main.c: 74: POWER_LED_TOGGLE();
  3138  0241  3183  233D         	fcall	_POWER_LED_TOGGLE
  3139  0243  0008               	return
  3140  0244                     __end_of_VT_ISR:	
  3141                           
  3142                           	psect	text21
  3143  033D                     __ptext21:	
  3144 ;; *************** function _POWER_LED_TOGGLE *****************
  3145 ;; Defined at:
  3146 ;;		line 58 in file "main.c"
  3147 ;; Parameters:    Size  Location     Type
  3148 ;;		None
  3149 ;; Auto vars:     Size  Location     Type
  3150 ;;		None
  3151 ;; Return value:  Size  Location     Type
  3152 ;;                  1    wreg      void 
  3153 ;; Registers used:
  3154 ;;		wreg, status,2, status,0, pclath, cstack
  3155 ;; Tracked objects:
  3156 ;;		On entry : 0/0
  3157 ;;		On exit  : 0/0
  3158 ;;		Unchanged: 0/0
  3159 ;; Data sizes:     COMMON   BANK0   BANK1   BANK2   BANK3   BANK4
  3160 ;;      Params:         0       0       0       0       0       0
  3161 ;;      Locals:         0       0       0       0       0       0
  3162 ;;      Temps:          0       0       0       0       0       0
  3163 ;;      Totals:         0       0       0       0       0       0
  3164 ;;Total ram usage:        0 bytes
  3165 ;; Hardware stack levels used:    1
  3166 ;; Hardware stack levels required when called:    1
  3167 ;; This function calls:
  3168 ;;		_POWER_LED_OFF
  3169 ;;		_POWER_LED_ON
  3170 ;; This function is called by:
  3171 ;;		_VT_ISR
  3172 ;; This function uses a non-reentrant model
  3173 ;;
  3174                           
  3175                           
  3176                           ;psect for function _POWER_LED_TOGGLE
  3177  033D                     _POWER_LED_TOGGLE:	
  3178                           
  3179                           ;main.c: 59: if (LedState == 0)
  3180                           
  3181                           ;incstack = 0
  3182                           ; Regs used in _POWER_LED_TOGGLE: [wreg+status,2+status,0+pclath+cstack]
  3183  033D  0020               	movlb	0	; select bank0
  3184  033E  0842               	movf	_LedState,w
  3185  033F  1D03               	btfss	3,2
  3186  0340  2B44               	goto	i1l1241
  3187                           
  3188                           ;main.c: 60: POWER_LED_ON();
  3189  0341  3183  2360         	fcall	_POWER_LED_ON
  3190  0343  0008               	return
  3191  0344                     i1l1241:	
  3192                           
  3193                           ;main.c: 61: else;main.c: 62: POWER_LED_OFF();
  3194  0344  3183  236C         	fcall	_POWER_LED_OFF
  3195  0346  0008               	return
  3196  0347                     __end_of_POWER_LED_TOGGLE:	
  3197                           
  3198                           	psect	text22
  3199  0360                     __ptext22:	
  3200 ;; *************** function _POWER_LED_ON *****************
  3201 ;; Defined at:
  3202 ;;		line 48 in file "main.c"
  3203 ;; Parameters:    Size  Location     Type
  3204 ;;		None
  3205 ;; Auto vars:     Size  Location     Type
  3206 ;;		None
  3207 ;; Return value:  Size  Location     Type
  3208 ;;                  1    wreg      void 
  3209 ;; Registers used:
  3210 ;;		None
  3211 ;; Tracked objects:
  3212 ;;		On entry : 0/0
  3213 ;;		On exit  : 0/0
  3214 ;;		Unchanged: 0/0
  3215 ;; Data sizes:     COMMON   BANK0   BANK1   BANK2   BANK3   BANK4
  3216 ;;      Params:         0       0       0       0       0       0
  3217 ;;      Locals:         0       0       0       0       0       0
  3218 ;;      Temps:          0       0       0       0       0       0
  3219 ;;      Totals:         0       0       0       0       0       0
  3220 ;;Total ram usage:        0 bytes
  3221 ;; Hardware stack levels used:    1
  3222 ;; This function calls:
  3223 ;;		Nothing
  3224 ;; This function is called by:
  3225 ;;		_POWER_LED_TOGGLE
  3226 ;;		_VT_ISR
  3227 ;; This function uses a non-reentrant model
  3228 ;;
  3229                           
  3230                           
  3231                           ;psect for function _POWER_LED_ON
  3232  0360                     _POWER_LED_ON:	
  3233                           
  3234                           ;incstack = 0
  3235                           ; Regs used in _POWER_LED_ON: []
  3236                           ;main.c: 49: do { LATBbits.LATB3 = 1; } while(0);
  3237  0360  0022               	movlb	2	; select bank2
  3238  0361  158D               	bsf	13,3	;volatile
  3239                           
  3240                           ;main.c: 50: LedState = 1;
  3241  0362  0020               	movlb	0	; select bank0
  3242  0363  01C2               	clrf	_LedState
  3243  0364  0AC2               	incf	_LedState,f
  3244  0365  0008               	return
  3245  0366                     __end_of_POWER_LED_ON:	
  3246                           
  3247                           	psect	text23
  3248  036C                     __ptext23:	
  3249 ;; *************** function _POWER_LED_OFF *****************
  3250 ;; Defined at:
  3251 ;;		line 53 in file "main.c"
  3252 ;; Parameters:    Size  Location     Type
  3253 ;;		None
  3254 ;; Auto vars:     Size  Location     Type
  3255 ;;		None
  3256 ;; Return value:  Size  Location     Type
  3257 ;;                  1    wreg      void 
  3258 ;; Registers used:
  3259 ;;		status,2
  3260 ;; Tracked objects:
  3261 ;;		On entry : 0/0
  3262 ;;		On exit  : 0/0
  3263 ;;		Unchanged: 0/0
  3264 ;; Data sizes:     COMMON   BANK0   BANK1   BANK2   BANK3   BANK4
  3265 ;;      Params:         0       0       0       0       0       0
  3266 ;;      Locals:         0       0       0       0       0       0
  3267 ;;      Temps:          0       0       0       0       0       0
  3268 ;;      Totals:         0       0       0       0       0       0
  3269 ;;Total ram usage:        0 bytes
  3270 ;; Hardware stack levels used:    1
  3271 ;; This function calls:
  3272 ;;		Nothing
  3273 ;; This function is called by:
  3274 ;;		_POWER_LED_TOGGLE
  3275 ;;		_VT_ISR
  3276 ;; This function uses a non-reentrant model
  3277 ;;
  3278                           
  3279                           
  3280                           ;psect for function _POWER_LED_OFF
  3281  036C                     _POWER_LED_OFF:	
  3282                           
  3283                           ;incstack = 0
  3284                           ; Regs used in _POWER_LED_OFF: [status,2]
  3285                           ;main.c: 54: do { LATBbits.LATB3 = 0; } while(0);
  3286  036C  0022               	movlb	2	; select bank2
  3287  036D  118D               	bcf	13,3	;volatile
  3288                           
  3289                           ;main.c: 55: LedState = 0;
  3290  036E  0020               	movlb	0	; select bank0
  3291  036F  01C2               	clrf	_LedState
  3292  0370  0008               	return
  3293  0371                     __end_of_POWER_LED_OFF:	
  3294                           
  3295                           	psect	text24
  3296  0371                     __ptext24:	
  3297 ;; *************** function _ADC_ISR *****************
  3298 ;; Defined at:
  3299 ;;		line 134 in file "mcc_generated_files/adc.c"
  3300 ;; Parameters:    Size  Location     Type
  3301 ;;		None
  3302 ;; Auto vars:     Size  Location     Type
  3303 ;;		None
  3304 ;; Return value:  Size  Location     Type
  3305 ;;                  1    wreg      void 
  3306 ;; Registers used:
  3307 ;;		wreg, status,2, status,0, pclath, cstack
  3308 ;; Tracked objects:
  3309 ;;		On entry : 0/0
  3310 ;;		On exit  : 0/0
  3311 ;;		Unchanged: 0/0
  3312 ;; Data sizes:     COMMON   BANK0   BANK1   BANK2   BANK3   BANK4
  3313 ;;      Params:         0       0       0       0       0       0
  3314 ;;      Locals:         0       0       0       0       0       0
  3315 ;;      Temps:          0       0       0       0       0       0
  3316 ;;      Totals:         0       0       0       0       0       0
  3317 ;;Total ram usage:        0 bytes
  3318 ;; Hardware stack levels used:    1
  3319 ;; Hardware stack levels required when called:    3
  3320 ;; This function calls:
  3321 ;;		_ADC_CompareValue
  3322 ;; This function is called by:
  3323 ;;		_INTERRUPT_InterruptManager
  3324 ;; This function uses a non-reentrant model
  3325 ;;
  3326                           
  3327                           
  3328                           ;psect for function _ADC_ISR
  3329  0371                     _ADC_ISR:	
  3330                           
  3331                           ;adc.c: 137: PIR1bits.ADIF = 0;
  3332                           
  3333                           ;incstack = 0
  3334                           ; Regs used in _ADC_ISR: [wreg+status,2+status,0+pclath+cstack]
  3335  0371  0020               	movlb	0	; select bank0
  3336  0372  1311               	bcf	17,6	;volatile
  3337                           
  3338                           ;adc.c: 139: ADC_CompareValue();
  3339  0373  3181  21AE         	fcall	_ADC_CompareValue
  3340  0375  0008               	return
  3341  0376                     __end_of_ADC_ISR:	
  3342                           
  3343                           	psect	text25
  3344  01AE                     __ptext25:	
  3345 ;; *************** function _ADC_CompareValue *****************
  3346 ;; Defined at:
  3347 ;;		line 142 in file "mcc_generated_files/adc.c"
  3348 ;; Parameters:    Size  Location     Type
  3349 ;;		None
  3350 ;; Auto vars:     Size  Location     Type
  3351 ;;  value           3   18[BANK0 ] float 
  3352 ;;  valueNum        2   16[BANK0 ] unsigned int 
  3353 ;; Return value:  Size  Location     Type
  3354 ;;                  1    wreg      void 
  3355 ;; Registers used:
  3356 ;;		wreg, status,2, status,0, pclath, cstack
  3357 ;; Tracked objects:
  3358 ;;		On entry : 0/0
  3359 ;;		On exit  : 0/0
  3360 ;;		Unchanged: 0/0
  3361 ;; Data sizes:     COMMON   BANK0   BANK1   BANK2   BANK3   BANK4
  3362 ;;      Params:         0       0       0       0       0       0
  3363 ;;      Locals:         0       5       0       0       0       0
  3364 ;;      Temps:          0       0       0       0       0       0
  3365 ;;      Totals:         0       5       0       0       0       0
  3366 ;;Total ram usage:        5 bytes
  3367 ;; Hardware stack levels used:    1
  3368 ;; Hardware stack levels required when called:    2
  3369 ;; This function calls:
  3370 ;;		_ADC_GetConversionResult
  3371 ;;		___ftge
  3372 ;;		___ftmul
  3373 ;;		___lwtoft
  3374 ;; This function is called by:
  3375 ;;		_ADC_ISR
  3376 ;; This function uses a non-reentrant model
  3377 ;;
  3378                           
  3379                           
  3380                           ;psect for function _ADC_CompareValue
  3381  01AE                     _ADC_CompareValue:	
  3382                           
  3383                           ;adc.c: 144: uint16_t valueNum = ADC_GetConversionResult();
  3384                           
  3385                           ;incstack = 0
  3386                           ; Regs used in _ADC_CompareValue: [wreg+status,2+status,0+pclath+cstack]
  3387  01AE  3183  2366  3181   	fcall	_ADC_GetConversionResult
  3388  01B1  0871               	movf	?_ADC_GetConversionResult+1,w
  3389  01B2  0020               	movlb	0	; select bank0
  3390  01B3  00B1               	movwf	ADC_CompareValue@valueNum+1
  3391  01B4  0870               	movf	?_ADC_GetConversionResult,w
  3392  01B5  00B0               	movwf	ADC_CompareValue@valueNum
  3393                           
  3394                           ;adc.c: 147: float value = valueNum * 0.004;
  3395  01B6  3012               	movlw	18
  3396  01B7  00A0               	movwf	___ftmul@f1
  3397  01B8  3083               	movlw	131
  3398  01B9  00A1               	movwf	___ftmul@f1+1
  3399  01BA  303B               	movlw	59
  3400  01BB  00A2               	movwf	___ftmul@f1+2
  3401  01BC  0831               	movf	ADC_CompareValue@valueNum+1,w
  3402  01BD  00F9               	movwf	___lwtoft@c+1
  3403  01BE  0830               	movf	ADC_CompareValue@valueNum,w
  3404  01BF  00F8               	movwf	___lwtoft@c
  3405  01C0  3182  22D2  3181   	fcall	___lwtoft
  3406  01C3  0878               	movf	?___lwtoft,w
  3407  01C4  0020               	movlb	0	; select bank0
  3408  01C5  00A3               	movwf	___ftmul@f2
  3409  01C6  0879               	movf	?___lwtoft+1,w
  3410  01C7  00A4               	movwf	___ftmul@f2+1
  3411  01C8  087A               	movf	?___lwtoft+2,w
  3412  01C9  00A5               	movwf	___ftmul@f2+2
  3413  01CA  3180  203A  3181   	fcall	___ftmul
  3414  01CD  0020               	movlb	0	; select bank0
  3415  01CE  0820               	movf	?___ftmul,w
  3416  01CF  00B2               	movwf	ADC_CompareValue@value
  3417  01D0  0821               	movf	?___ftmul+1,w
  3418  01D1  00B3               	movwf	ADC_CompareValue@value+1
  3419  01D2  0822               	movf	?___ftmul+2,w
  3420  01D3  00B4               	movwf	ADC_CompareValue@value+2
  3421  01D4  0022               	movlb	2	; select bank2
  3422  01D5  140D               	bsf	13,0	;volatile
  3423  01D6  148D               	bsf	13,1	;volatile
  3424                           
  3425                           ;adc.c: 151: if(value >= 4.0)
  3426  01D7  0020               	movlb	0	; select bank0
  3427  01D8  0832               	movf	ADC_CompareValue@value,w
  3428  01D9  00F0               	movwf	___ftge@ff1
  3429  01DA  0833               	movf	ADC_CompareValue@value+1,w
  3430  01DB  00F1               	movwf	___ftge@ff1+1
  3431  01DC  0834               	movf	ADC_CompareValue@value+2,w
  3432  01DD  00F2               	movwf	___ftge@ff1+2
  3433  01DE  3000               	movlw	0
  3434  01DF  00F3               	movwf	___ftge@ff2
  3435  01E0  3080               	movlw	128
  3436  01E1  00F4               	movwf	___ftge@ff2+1
  3437  01E2  3040               	movlw	64
  3438  01E3  00F5               	movwf	___ftge@ff2+2
  3439  01E4  3182  2244  3181   	fcall	___ftge
  3440  01E7  1C03               	btfss	3,0
  3441  01E8  29EC               	goto	i1l1407
  3442                           
  3443                           ;adc.c: 152: {;adc.c: 153: do { LATBbits.LATB1 = 0; } while(0);
  3444  01E9  0022               	movlb	2	; select bank2
  3445  01EA  108D               	bcf	13,1	;volatile
  3446  01EB  0008               	return
  3447  01EC                     i1l1407:	
  3448  01EC  309A               	movlw	154
  3449  01ED  00F0               	movwf	___ftge@ff1
  3450  01EE  3059               	movlw	89
  3451  01EF  00F1               	movwf	___ftge@ff1+1
  3452  01F0  3040               	movlw	64
  3453  01F1  00F2               	movwf	___ftge@ff1+2
  3454  01F2  0020               	movlb	0	; select bank0
  3455  01F3  0832               	movf	ADC_CompareValue@value,w
  3456  01F4  00F3               	movwf	___ftge@ff2
  3457  01F5  0833               	movf	ADC_CompareValue@value+1,w
  3458  01F6  00F4               	movwf	___ftge@ff2+1
  3459  01F7  0834               	movf	ADC_CompareValue@value+2,w
  3460  01F8  00F5               	movwf	___ftge@ff2+2
  3461  01F9  3182  2244  3181   	fcall	___ftge
  3462  01FC  1C03               	btfss	3,0
  3463  01FD  0008               	return
  3464                           
  3465                           ;adc.c: 155: do { LATBbits.LATB0 = 0; } while(0);
  3466  01FE  0022               	movlb	2	; select bank2
  3467  01FF  100D               	bcf	13,0	;volatile
  3468  0200  0008               	return
  3469  0201                     __end_of_ADC_CompareValue:	
  3470                           
  3471                           	psect	text26
  3472  02D2                     __ptext26:	
  3473 ;; *************** function ___lwtoft *****************
  3474 ;; Defined at:
  3475 ;;		line 28 in file "C:\Program Files (x86)\Microchip\xc8\v2.10\pic\sources\c90\common\lwtoft.c"
  3476 ;; Parameters:    Size  Location     Type
  3477 ;;  c               2    8[COMMON] unsigned int 
  3478 ;; Auto vars:     Size  Location     Type
  3479 ;;		None
  3480 ;; Return value:  Size  Location     Type
  3481 ;;                  3    8[COMMON] float 
  3482 ;; Registers used:
  3483 ;;		wreg, status,2, status,0, pclath, cstack
  3484 ;; Tracked objects:
  3485 ;;		On entry : 0/0
  3486 ;;		On exit  : 0/0
  3487 ;;		Unchanged: 0/0
  3488 ;; Data sizes:     COMMON   BANK0   BANK1   BANK2   BANK3   BANK4
  3489 ;;      Params:         3       0       0       0       0       0
  3490 ;;      Locals:         0       0       0       0       0       0
  3491 ;;      Temps:          1       0       0       0       0       0
  3492 ;;      Totals:         4       0       0       0       0       0
  3493 ;;Total ram usage:        4 bytes
  3494 ;; Hardware stack levels used:    1
  3495 ;; Hardware stack levels required when called:    1
  3496 ;; This function calls:
  3497 ;;		___ftpack
  3498 ;; This function is called by:
  3499 ;;		_ADC_CompareValue
  3500 ;; This function uses a non-reentrant model
  3501 ;;
  3502                           
  3503                           
  3504                           ;psect for function ___lwtoft
  3505  02D2                     ___lwtoft:	
  3506                           
  3507                           ;incstack = 0
  3508                           ; Regs used in ___lwtoft: [wreg+status,2+status,0+pclath+cstack]
  3509  02D2  0878               	movf	___lwtoft@c,w
  3510  02D3  00F0               	movwf	___ftpack@arg
  3511  02D4  0879               	movf	___lwtoft@c+1,w
  3512  02D5  00F1               	movwf	___ftpack@arg+1
  3513  02D6  01F2               	clrf	___ftpack@arg+2
  3514  02D7  308E               	movlw	142
  3515  02D8  00FB               	movwf	??___lwtoft
  3516  02D9  087B               	movf	??___lwtoft,w
  3517  02DA  00F3               	movwf	___ftpack@exp
  3518  02DB  01F4               	clrf	___ftpack@sign
  3519  02DC  3180  20EE         	fcall	___ftpack
  3520  02DE  0870               	movf	?___ftpack,w
  3521  02DF  00F8               	movwf	?___lwtoft
  3522  02E0  0871               	movf	?___ftpack+1,w
  3523  02E1  00F9               	movwf	?___lwtoft+1
  3524  02E2  0872               	movf	?___ftpack+2,w
  3525  02E3  00FA               	movwf	?___lwtoft+2
  3526  02E4  0008               	return
  3527  02E5                     __end_of___lwtoft:	
  3528                           
  3529                           	psect	text27
  3530  003A                     __ptext27:	
  3531 ;; *************** function ___ftmul *****************
  3532 ;; Defined at:
  3533 ;;		line 62 in file "C:\Program Files (x86)\Microchip\xc8\v2.10\pic\sources\c90\common\ftmul.c"
  3534 ;; Parameters:    Size  Location     Type
  3535 ;;  f1              3    0[BANK0 ] float 
  3536 ;;  f2              3    3[BANK0 ] float 
  3537 ;; Auto vars:     Size  Location     Type
  3538 ;;  f3_as_produc    3   11[BANK0 ] unsigned um
  3539 ;;  sign            1   15[BANK0 ] unsigned char 
  3540 ;;  cntr            1   14[BANK0 ] unsigned char 
  3541 ;;  exp             1   10[BANK0 ] unsigned char 
  3542 ;; Return value:  Size  Location     Type
  3543 ;;                  3    0[BANK0 ] float 
  3544 ;; Registers used:
  3545 ;;		wreg, status,2, status,0, pclath, cstack
  3546 ;; Tracked objects:
  3547 ;;		On entry : 0/0
  3548 ;;		On exit  : 0/0
  3549 ;;		Unchanged: 0/0
  3550 ;; Data sizes:     COMMON   BANK0   BANK1   BANK2   BANK3   BANK4
  3551 ;;      Params:         0       6       0       0       0       0
  3552 ;;      Locals:         0       6       0       0       0       0
  3553 ;;      Temps:          0       4       0       0       0       0
  3554 ;;      Totals:         0      16       0       0       0       0
  3555 ;;Total ram usage:       16 bytes
  3556 ;; Hardware stack levels used:    1
  3557 ;; Hardware stack levels required when called:    1
  3558 ;; This function calls:
  3559 ;;		___ftpack
  3560 ;; This function is called by:
  3561 ;;		_ADC_CompareValue
  3562 ;; This function uses a non-reentrant model
  3563 ;;
  3564                           
  3565                           
  3566                           ;psect for function ___ftmul
  3567  003A                     ___ftmul:	
  3568                           
  3569                           ;incstack = 0
  3570                           ; Regs used in ___ftmul: [wreg+status,2+status,0+pclath+cstack]
  3571  003A  0020               	movlb	0	; select bank0
  3572  003B  0820               	movf	___ftmul@f1,w
  3573  003C  00A6               	movwf	??___ftmul
  3574  003D  0821               	movf	___ftmul@f1+1,w
  3575  003E  00A7               	movwf	??___ftmul+1
  3576  003F  0822               	movf	___ftmul@f1+2,w
  3577  0040  00A8               	movwf	??___ftmul+2
  3578  0041  1003               	clrc
  3579  0042  0D27               	rlf	??___ftmul+1,w
  3580  0043  0D28               	rlf	??___ftmul+2,w
  3581  0044  00A9               	movwf	??___ftmul+3
  3582  0045  0829               	movf	??___ftmul+3,w
  3583  0046  00AA               	movwf	___ftmul@exp
  3584  0047  082A               	movf	___ftmul@exp,w
  3585  0048  1D03               	btfss	3,2
  3586  0049  2851               	goto	i1l1323
  3587  004A  3000               	movlw	0
  3588  004B  00A0               	movwf	?___ftmul
  3589  004C  3000               	movlw	0
  3590  004D  00A1               	movwf	?___ftmul+1
  3591  004E  3000               	movlw	0
  3592  004F  00A2               	movwf	?___ftmul+2
  3593  0050  0008               	return
  3594  0051                     i1l1323:	
  3595  0051  0823               	movf	___ftmul@f2,w
  3596  0052  00A6               	movwf	??___ftmul
  3597  0053  0824               	movf	___ftmul@f2+1,w
  3598  0054  00A7               	movwf	??___ftmul+1
  3599  0055  0825               	movf	___ftmul@f2+2,w
  3600  0056  00A8               	movwf	??___ftmul+2
  3601  0057  1003               	clrc
  3602  0058  0D27               	rlf	??___ftmul+1,w
  3603  0059  0D28               	rlf	??___ftmul+2,w
  3604  005A  00A9               	movwf	??___ftmul+3
  3605  005B  0829               	movf	??___ftmul+3,w
  3606  005C  00AF               	movwf	___ftmul@sign
  3607  005D  082F               	movf	___ftmul@sign,w
  3608  005E  1D03               	btfss	3,2
  3609  005F  2867               	goto	i1l1329
  3610  0060  3000               	movlw	0
  3611  0061  00A0               	movwf	?___ftmul
  3612  0062  3000               	movlw	0
  3613  0063  00A1               	movwf	?___ftmul+1
  3614  0064  3000               	movlw	0
  3615  0065  00A2               	movwf	?___ftmul+2
  3616  0066  0008               	return
  3617  0067                     i1l1329:	
  3618  0067  082F               	movf	___ftmul@sign,w
  3619  0068  3E7B               	addlw	123
  3620  0069  00A6               	movwf	??___ftmul
  3621  006A  0826               	movf	??___ftmul,w
  3622  006B  07AA               	addwf	___ftmul@exp,f
  3623  006C  0820               	movf	___ftmul@f1,w
  3624  006D  00A6               	movwf	??___ftmul
  3625  006E  0821               	movf	___ftmul@f1+1,w
  3626  006F  00A7               	movwf	??___ftmul+1
  3627  0070  0822               	movf	___ftmul@f1+2,w
  3628  0071  00A8               	movwf	??___ftmul+2
  3629  0072  3010               	movlw	16
  3630  0073                     u68_25:	
  3631  0073  36A8               	lsrf	??___ftmul+2,f
  3632  0074  0CA7               	rrf	??___ftmul+1,f
  3633  0075  0CA6               	rrf	??___ftmul,f
  3634  0076  0B89               	decfsz	9,f
  3635  0077  2873               	goto	u68_25
  3636  0078  0826               	movf	??___ftmul,w
  3637  0079  00A9               	movwf	??___ftmul+3
  3638  007A  0829               	movf	??___ftmul+3,w
  3639  007B  00AF               	movwf	___ftmul@sign
  3640  007C  0823               	movf	___ftmul@f2,w
  3641  007D  00A6               	movwf	??___ftmul
  3642  007E  0824               	movf	___ftmul@f2+1,w
  3643  007F  00A7               	movwf	??___ftmul+1
  3644  0080  0825               	movf	___ftmul@f2+2,w
  3645  0081  00A8               	movwf	??___ftmul+2
  3646  0082  3010               	movlw	16
  3647  0083                     u69_25:	
  3648  0083  36A8               	lsrf	??___ftmul+2,f
  3649  0084  0CA7               	rrf	??___ftmul+1,f
  3650  0085  0CA6               	rrf	??___ftmul,f
  3651  0086  0B89               	decfsz	9,f
  3652  0087  2883               	goto	u69_25
  3653  0088  0826               	movf	??___ftmul,w
  3654  0089  00A9               	movwf	??___ftmul+3
  3655  008A  0829               	movf	??___ftmul+3,w
  3656  008B  06AF               	xorwf	___ftmul@sign,f
  3657  008C  3080               	movlw	128
  3658  008D  00A6               	movwf	??___ftmul
  3659  008E  0826               	movf	??___ftmul,w
  3660  008F  05AF               	andwf	___ftmul@sign,f
  3661  0090  17A1               	bsf	___ftmul@f1+1,7
  3662  0091  17A4               	bsf	___ftmul@f2+1,7
  3663  0092  30FF               	movlw	255
  3664  0093  05A3               	andwf	___ftmul@f2,f
  3665  0094  30FF               	movlw	255
  3666  0095  05A4               	andwf	___ftmul@f2+1,f
  3667  0096  3000               	movlw	0
  3668  0097  05A5               	andwf	___ftmul@f2+2,f
  3669  0098  3000               	movlw	0
  3670  0099  00AB               	movwf	___ftmul@f3_as_product
  3671  009A  3000               	movlw	0
  3672  009B  00AC               	movwf	___ftmul@f3_as_product+1
  3673  009C  3000               	movlw	0
  3674  009D  00AD               	movwf	___ftmul@f3_as_product+2
  3675  009E  3007               	movlw	7
  3676  009F  00A6               	movwf	??___ftmul
  3677  00A0  0826               	movf	??___ftmul,w
  3678  00A1  00AE               	movwf	___ftmul@cntr
  3679  00A2                     i1l1341:	
  3680  00A2  1C20               	btfss	___ftmul@f1,0
  3681  00A3  28AA               	goto	i1l1345
  3682  00A4  0823               	movf	___ftmul@f2,w
  3683  00A5  07AB               	addwf	___ftmul@f3_as_product,f
  3684  00A6  0824               	movf	___ftmul@f2+1,w
  3685  00A7  3DAC               	addwfc	___ftmul@f3_as_product+1,f
  3686  00A8  0825               	movf	___ftmul@f2+2,w
  3687  00A9  3DAD               	addwfc	___ftmul@f3_as_product+2,f
  3688  00AA                     i1l1345:	
  3689  00AA  3001               	movlw	1
  3690  00AB                     u71_25:	
  3691  00AB  36A2               	lsrf	___ftmul@f1+2,f
  3692  00AC  0CA1               	rrf	___ftmul@f1+1,f
  3693  00AD  0CA0               	rrf	___ftmul@f1,f
  3694  00AE  0B89               	decfsz	9,f
  3695  00AF  28AB               	goto	u71_25
  3696  00B0  3001               	movlw	1
  3697  00B1                     u72_25:	
  3698  00B1  35A3               	lslf	___ftmul@f2,f
  3699  00B2  0DA4               	rlf	___ftmul@f2+1,f
  3700  00B3  0DA5               	rlf	___ftmul@f2+2,f
  3701  00B4  0B89               	decfsz	9,f
  3702  00B5  28B1               	goto	u72_25
  3703  00B6  3001               	movlw	1
  3704  00B7  02AE               	subwf	___ftmul@cntr,f
  3705  00B8  1D03               	btfss	3,2
  3706  00B9  28A2               	goto	i1l1341
  3707  00BA  3009               	movlw	9
  3708  00BB  00A6               	movwf	??___ftmul
  3709  00BC  0826               	movf	??___ftmul,w
  3710  00BD  00AE               	movwf	___ftmul@cntr
  3711  00BE                     i1l1353:	
  3712  00BE  1C20               	btfss	___ftmul@f1,0
  3713  00BF  28C6               	goto	i1l1357
  3714  00C0  0823               	movf	___ftmul@f2,w
  3715  00C1  07AB               	addwf	___ftmul@f3_as_product,f
  3716  00C2  0824               	movf	___ftmul@f2+1,w
  3717  00C3  3DAC               	addwfc	___ftmul@f3_as_product+1,f
  3718  00C4  0825               	movf	___ftmul@f2+2,w
  3719  00C5  3DAD               	addwfc	___ftmul@f3_as_product+2,f
  3720  00C6                     i1l1357:	
  3721  00C6  3001               	movlw	1
  3722  00C7                     u75_25:	
  3723  00C7  36A2               	lsrf	___ftmul@f1+2,f
  3724  00C8  0CA1               	rrf	___ftmul@f1+1,f
  3725  00C9  0CA0               	rrf	___ftmul@f1,f
  3726  00CA  0B89               	decfsz	9,f
  3727  00CB  28C7               	goto	u75_25
  3728  00CC  3001               	movlw	1
  3729  00CD                     u76_25:	
  3730  00CD  36AD               	lsrf	___ftmul@f3_as_product+2,f
  3731  00CE  0CAC               	rrf	___ftmul@f3_as_product+1,f
  3732  00CF  0CAB               	rrf	___ftmul@f3_as_product,f
  3733  00D0  0B89               	decfsz	9,f
  3734  00D1  28CD               	goto	u76_25
  3735  00D2  3001               	movlw	1
  3736  00D3  02AE               	subwf	___ftmul@cntr,f
  3737  00D4  1D03               	btfss	3,2
  3738  00D5  28BE               	goto	i1l1353
  3739  00D6  082B               	movf	___ftmul@f3_as_product,w
  3740  00D7  00F0               	movwf	___ftpack@arg
  3741  00D8  082C               	movf	___ftmul@f3_as_product+1,w
  3742  00D9  00F1               	movwf	___ftpack@arg+1
  3743  00DA  082D               	movf	___ftmul@f3_as_product+2,w
  3744  00DB  00F2               	movwf	___ftpack@arg+2
  3745  00DC  082A               	movf	___ftmul@exp,w
  3746  00DD  00A6               	movwf	??___ftmul
  3747  00DE  0826               	movf	??___ftmul,w
  3748  00DF  00F3               	movwf	___ftpack@exp
  3749  00E0  082F               	movf	___ftmul@sign,w
  3750  00E1  00A7               	movwf	??___ftmul+1
  3751  00E2  0827               	movf	??___ftmul+1,w
  3752  00E3  00F4               	movwf	___ftpack@sign
  3753  00E4  3180  20EE         	fcall	___ftpack
  3754  00E6  0870               	movf	?___ftpack,w
  3755  00E7  0020               	movlb	0	; select bank0
  3756  00E8  00A0               	movwf	?___ftmul
  3757  00E9  0871               	movf	?___ftpack+1,w
  3758  00EA  00A1               	movwf	?___ftmul+1
  3759  00EB  0872               	movf	?___ftpack+2,w
  3760  00EC  00A2               	movwf	?___ftmul+2
  3761  00ED  0008               	return
  3762  00EE                     __end_of___ftmul:	
  3763                           
  3764                           	psect	text28
  3765  00EE                     __ptext28:	
  3766 ;; *************** function ___ftpack *****************
  3767 ;; Defined at:
  3768 ;;		line 62 in file "C:\Program Files (x86)\Microchip\xc8\v2.10\pic\sources\c90\common\float.c"
  3769 ;; Parameters:    Size  Location     Type
  3770 ;;  arg             3    0[COMMON] unsigned um
  3771 ;;  exp             1    3[COMMON] unsigned char 
  3772 ;;  sign            1    4[COMMON] unsigned char 
  3773 ;; Auto vars:     Size  Location     Type
  3774 ;;		None
  3775 ;; Return value:  Size  Location     Type
  3776 ;;                  3    0[COMMON] float 
  3777 ;; Registers used:
  3778 ;;		wreg, status,2, status,0
  3779 ;; Tracked objects:
  3780 ;;		On entry : 0/0
  3781 ;;		On exit  : 0/0
  3782 ;;		Unchanged: 0/0
  3783 ;; Data sizes:     COMMON   BANK0   BANK1   BANK2   BANK3   BANK4
  3784 ;;      Params:         5       0       0       0       0       0
  3785 ;;      Locals:         0       0       0       0       0       0
  3786 ;;      Temps:          3       0       0       0       0       0
  3787 ;;      Totals:         8       0       0       0       0       0
  3788 ;;Total ram usage:        8 bytes
  3789 ;; Hardware stack levels used:    1
  3790 ;; This function calls:
  3791 ;;		Nothing
  3792 ;; This function is called by:
  3793 ;;		___ftmul
  3794 ;;		___lwtoft
  3795 ;; This function uses a non-reentrant model
  3796 ;;
  3797                           
  3798                           
  3799                           ;psect for function ___ftpack
  3800  00EE                     ___ftpack:	
  3801                           
  3802                           ;incstack = 0
  3803                           ; Regs used in ___ftpack: [wreg+status,2+status,0]
  3804  00EE  0873               	movf	___ftpack@exp,w
  3805  00EF  1903               	btfsc	3,2
  3806  00F0  28F6               	goto	i1l1247
  3807  00F1  0872               	movf	___ftpack@arg+2,w
  3808  00F2  0471               	iorwf	___ftpack@arg+1,w
  3809  00F3  0470               	iorwf	___ftpack@arg,w
  3810  00F4  1D03               	skipz
  3811  00F5  2907               	goto	i1l1253
  3812  00F6                     i1l1247:	
  3813  00F6  3000               	movlw	0
  3814  00F7  00F0               	movwf	?___ftpack
  3815  00F8  3000               	movlw	0
  3816  00F9  00F1               	movwf	?___ftpack+1
  3817  00FA  3000               	movlw	0
  3818  00FB  00F2               	movwf	?___ftpack+2
  3819  00FC  0008               	return
  3820  00FD                     i1l1251:	
  3821  00FD  3001               	movlw	1
  3822  00FE  00F5               	movwf	??___ftpack
  3823  00FF  0875               	movf	??___ftpack,w
  3824  0100  07F3               	addwf	___ftpack@exp,f
  3825  0101  3001               	movlw	1
  3826  0102                     u50_25:	
  3827  0102  36F2               	lsrf	___ftpack@arg+2,f
  3828  0103  0CF1               	rrf	___ftpack@arg+1,f
  3829  0104  0CF0               	rrf	___ftpack@arg,f
  3830  0105  0B89               	decfsz	9,f
  3831  0106  2902               	goto	u50_25
  3832  0107                     i1l1253:	
  3833  0107  30FE               	movlw	254
  3834  0108  0572               	andwf	___ftpack@arg+2,w
  3835  0109  1903               	btfsc	3,2
  3836  010A  2920               	goto	i1l674
  3837  010B  28FD               	goto	i1l1251
  3838  010C                     i1l1255:	
  3839  010C  3001               	movlw	1
  3840  010D  00F5               	movwf	??___ftpack
  3841  010E  0875               	movf	??___ftpack,w
  3842  010F  07F3               	addwf	___ftpack@exp,f
  3843  0110  3001               	movlw	1
  3844  0111  07F0               	addwf	___ftpack@arg,f
  3845  0112  3000               	movlw	0
  3846  0113  1803               	skipnc
  3847  0114  3001               	movlw	1
  3848  0115  07F1               	addwf	___ftpack@arg+1,f
  3849  0116  3000               	movlw	0
  3850  0117  1803               	skipnc
  3851  0118  3001               	movlw	1
  3852  0119  07F2               	addwf	___ftpack@arg+2,f
  3853  011A  3001               	movlw	1
  3854  011B                     u52_25:	
  3855  011B  36F2               	lsrf	___ftpack@arg+2,f
  3856  011C  0CF1               	rrf	___ftpack@arg+1,f
  3857  011D  0CF0               	rrf	___ftpack@arg,f
  3858  011E  0B89               	decfsz	9,f
  3859  011F  291B               	goto	u52_25
  3860  0120                     i1l674:	
  3861  0120  30FF               	movlw	255
  3862  0121  0572               	andwf	___ftpack@arg+2,w
  3863  0122  1903               	btfsc	3,2
  3864  0123  2931               	goto	i1l1263
  3865  0124  290C               	goto	i1l1255
  3866  0125                     i1l1265:	
  3867  0125  3002               	movlw	2
  3868  0126  0273               	subwf	___ftpack@exp,w
  3869  0127  1C03               	btfss	3,0
  3870  0128  2933               	goto	i1l681
  3871  0129  3001               	movlw	1
  3872  012A  02F3               	subwf	___ftpack@exp,f
  3873  012B  3001               	movlw	1
  3874  012C                     u54_25:	
  3875  012C  35F0               	lslf	___ftpack@arg,f
  3876  012D  0DF1               	rlf	___ftpack@arg+1,f
  3877  012E  0DF2               	rlf	___ftpack@arg+2,f
  3878  012F  0B89               	decfsz	9,f
  3879  0130  292C               	goto	u54_25
  3880  0131                     i1l1263:	
  3881  0131  1FF1               	btfss	___ftpack@arg+1,7
  3882  0132  2925               	goto	i1l1265
  3883  0133                     i1l681:	
  3884  0133  1873               	btfsc	___ftpack@exp,0
  3885  0134  293B               	goto	i1l682
  3886  0135  30FF               	movlw	255
  3887  0136  05F0               	andwf	___ftpack@arg,f
  3888  0137  307F               	movlw	127
  3889  0138  05F1               	andwf	___ftpack@arg+1,f
  3890  0139  30FF               	movlw	255
  3891  013A  05F2               	andwf	___ftpack@arg+2,f
  3892  013B                     i1l682:	
  3893  013B  1003               	clrc
  3894  013C  0CF3               	rrf	___ftpack@exp,f
  3895  013D  0873               	movf	___ftpack@exp,w
  3896  013E  00F5               	movwf	??___ftpack
  3897  013F  01F6               	clrf	??___ftpack+1
  3898  0140  01F7               	clrf	??___ftpack+2
  3899  0141  3010               	movlw	16
  3900  0142                     u58_25:	
  3901  0142  35F5               	lslf	??___ftpack,f
  3902  0143  0DF6               	rlf	??___ftpack+1,f
  3903  0144  0DF7               	rlf	??___ftpack+2,f
  3904  0145  0B89               	decfsz	9,f
  3905  0146  2942               	goto	u58_25
  3906  0147  0875               	movf	??___ftpack,w
  3907  0148  04F0               	iorwf	___ftpack@arg,f
  3908  0149  0876               	movf	??___ftpack+1,w
  3909  014A  04F1               	iorwf	___ftpack@arg+1,f
  3910  014B  0877               	movf	??___ftpack+2,w
  3911  014C  04F2               	iorwf	___ftpack@arg+2,f
  3912  014D  0874               	movf	___ftpack@sign,w
  3913  014E  1903               	btfsc	3,2
  3914  014F  0008               	return
  3915  0150  17F2               	bsf	___ftpack@arg+2,7
  3916  0151  0008               	return
  3917  0152                     __end_of___ftpack:	
  3918                           
  3919                           	psect	text29
  3920  0244                     __ptext29:	
  3921 ;; *************** function ___ftge *****************
  3922 ;; Defined at:
  3923 ;;		line 4 in file "C:\Program Files (x86)\Microchip\xc8\v2.10\pic\sources\c90\common\ftge.c"
  3924 ;; Parameters:    Size  Location     Type
  3925 ;;  ff1             3    0[COMMON] float 
  3926 ;;  ff2             3    3[COMMON] float 
  3927 ;; Auto vars:     Size  Location     Type
  3928 ;;		None
  3929 ;; Return value:  Size  Location     Type
  3930 ;;		None               void
  3931 ;; Registers used:
  3932 ;;		wreg, status,2, status,0
  3933 ;; Tracked objects:
  3934 ;;		On entry : 0/0
  3935 ;;		On exit  : 0/0
  3936 ;;		Unchanged: 0/0
  3937 ;; Data sizes:     COMMON   BANK0   BANK1   BANK2   BANK3   BANK4
  3938 ;;      Params:         6       0       0       0       0       0
  3939 ;;      Locals:         0       0       0       0       0       0
  3940 ;;      Temps:          0       0       0       0       0       0
  3941 ;;      Totals:         6       0       0       0       0       0
  3942 ;;Total ram usage:        6 bytes
  3943 ;; Hardware stack levels used:    1
  3944 ;; This function calls:
  3945 ;;		Nothing
  3946 ;; This function is called by:
  3947 ;;		_ADC_CompareValue
  3948 ;; This function uses a non-reentrant model
  3949 ;;
  3950                           
  3951                           
  3952                           ;psect for function ___ftge
  3953  0244                     ___ftge:	
  3954                           
  3955                           ;incstack = 0
  3956                           ; Regs used in ___ftge: [wreg+status,2+status,0]
  3957  0244  1FF2               	btfss	___ftge@ff1+2,7
  3958  0245  2A53               	goto	i1l1301
  3959  0246  0870               	movf	___ftge@ff1,w
  3960  0247  3C00               	sublw	0
  3961  0248  00F0               	movwf	___ftge@ff1
  3962  0249  0871               	movf	___ftge@ff1+1,w
  3963  024A  1C03               	skipc
  3964  024B  0F71               	incfsz	___ftge@ff1+1,w
  3965  024C  3C00               	sublw	0
  3966  024D  00F1               	movwf	___ftge@ff1+1
  3967  024E  0872               	movf	___ftge@ff1+2,w
  3968  024F  1C03               	skipc
  3969  0250  0F72               	incfsz	___ftge@ff1+2,w
  3970  0251  3C80               	sublw	128
  3971  0252  00F2               	movwf	___ftge@ff1+2
  3972  0253                     i1l1301:	
  3973  0253  1FF5               	btfss	___ftge@ff2+2,7
  3974  0254  2A62               	goto	i1l1305
  3975  0255  0873               	movf	___ftge@ff2,w
  3976  0256  3C00               	sublw	0
  3977  0257  00F3               	movwf	___ftge@ff2
  3978  0258  0874               	movf	___ftge@ff2+1,w
  3979  0259  1C03               	skipc
  3980  025A  0F74               	incfsz	___ftge@ff2+1,w
  3981  025B  3C00               	sublw	0
  3982  025C  00F4               	movwf	___ftge@ff2+1
  3983  025D  0875               	movf	___ftge@ff2+2,w
  3984  025E  1C03               	skipc
  3985  025F  0F75               	incfsz	___ftge@ff2+2,w
  3986  0260  3C80               	sublw	128
  3987  0261  00F5               	movwf	___ftge@ff2+2
  3988  0262                     i1l1305:	
  3989  0262  3080               	movlw	128
  3990  0263  06F2               	xorwf	___ftge@ff1+2,f
  3991  0264  3080               	movlw	128
  3992  0265  06F5               	xorwf	___ftge@ff2+2,f
  3993  0266  0875               	movf	___ftge@ff2+2,w
  3994  0267  0272               	subwf	___ftge@ff1+2,w
  3995  0268  1D03               	skipz
  3996  0269  0008               	return
  3997  026A  0874               	movf	___ftge@ff2+1,w
  3998  026B  0271               	subwf	___ftge@ff1+1,w
  3999  026C  1D03               	skipz
  4000  026D  0008               	return
  4001  026E  0873               	movf	___ftge@ff2,w
  4002  026F  0270               	subwf	___ftge@ff1,w
  4003  0270  0008               	return
  4004  0271                     __end_of___ftge:	
  4005                           
  4006                           	psect	text30
  4007  0366                     __ptext30:	
  4008 ;; *************** function _ADC_GetConversionResult *****************
  4009 ;; Defined at:
  4010 ;;		line 106 in file "mcc_generated_files/adc.c"
  4011 ;; Parameters:    Size  Location     Type
  4012 ;;		None
  4013 ;; Auto vars:     Size  Location     Type
  4014 ;;		None
  4015 ;; Return value:  Size  Location     Type
  4016 ;;                  2    0[COMMON] unsigned int 
  4017 ;; Registers used:
  4018 ;;		wreg
  4019 ;; Tracked objects:
  4020 ;;		On entry : 0/0
  4021 ;;		On exit  : 0/0
  4022 ;;		Unchanged: 0/0
  4023 ;; Data sizes:     COMMON   BANK0   BANK1   BANK2   BANK3   BANK4
  4024 ;;      Params:         2       0       0       0       0       0
  4025 ;;      Locals:         0       0       0       0       0       0
  4026 ;;      Temps:          0       0       0       0       0       0
  4027 ;;      Totals:         2       0       0       0       0       0
  4028 ;;Total ram usage:        2 bytes
  4029 ;; Hardware stack levels used:    1
  4030 ;; This function calls:
  4031 ;;		Nothing
  4032 ;; This function is called by:
  4033 ;;		_ADC_CompareValue
  4034 ;; This function uses a non-reentrant model
  4035 ;;
  4036                           
  4037                           
  4038                           ;psect for function _ADC_GetConversionResult
  4039  0366                     _ADC_GetConversionResult:	
  4040                           
  4041                           ;adc.c: 109: return ((ADRESH << 8) + ADRESL);
  4042                           
  4043                           ;incstack = 0
  4044                           ; Regs used in _ADC_GetConversionResult: [wreg]
  4045  0366  0021               	movlb	1	; select bank1
  4046  0367  081C               	movf	28,w	;volatile
  4047  0368  00F1               	movwf	?_ADC_GetConversionResult+1
  4048  0369  081B               	movf	27,w	;volatile
  4049  036A  00F0               	movwf	?_ADC_GetConversionResult
  4050  036B  0008               	return
  4051  036C                     __end_of_ADC_GetConversionResult:	
  4052  007E                     btemp	set	126	;btemp
  4053  007E                     int$flags	set	126
  4054  007E                     wtemp0	set	126


Data Sizes:
    Strings     0
    Constant    1
    Data        3
    BSS         6
    Persistent  36
    Stack       0

Auto Spaces:
    Space          Size  Autos    Used
    COMMON           14     14      14
    BANK0            80     30      43
    BANK1            80      0       0
    BANK2            80      0       0
    BANK3            80      0       0
    BANK4            48      0       0

Pointer List with Targets:

    IOCBF5_SetInterruptHandler@InterruptHandler	PTR FTN()void  size(2) Largest target is 1
		 -> VT_ISR(), IOCBF5_DefaultInterruptHandler(), 

    IOCBF5_InterruptHandler	PTR FTN()void  size(2) Largest target is 1
		 -> VT_ISR(), IOCBF5_DefaultInterruptHandler(), Absolute function(), 

    TMR2_SetInterruptHandler@InterruptHandler	PTR FTN()void  size(2) Largest target is 1
		 -> TMR2_DefaultInterruptHandler(), 

    TMR2_InterruptHandler	PTR FTN()void  size(2) Largest target is 1
		 -> Absolute function(), TMR2_DefaultInterruptHandler(), 


Critical Paths under _main in COMMON

    None.

Critical Paths under _INTERRUPT_InterruptManager in COMMON

    _IOCBF5_ISR->_VT_ISR
    _ADC_CompareValue->___lwtoft
    ___lwtoft->___ftpack
    ___ftmul->___lwtoft

Critical Paths under _main in BANK0

    _main->_Delay_Xms
    _TMR2_Initialize->_TMR2_SetInterruptHandler
    _PIN_MANAGER_Initialize->_IOCBF5_SetInterruptHandler
    _ADC_Initialize->_ADC_SelectChannel

Critical Paths under _INTERRUPT_InterruptManager in BANK0

    _ADC_ISR->_ADC_CompareValue
    _ADC_CompareValue->___ftmul

Critical Paths under _main in BANK1

    None.

Critical Paths under _INTERRUPT_InterruptManager in BANK1

    None.

Critical Paths under _main in BANK2

    None.

Critical Paths under _INTERRUPT_InterruptManager in BANK2

    None.

Critical Paths under _main in BANK3

    None.

Critical Paths under _INTERRUPT_InterruptManager in BANK3

    None.

Critical Paths under _main in BANK4

    None.

Critical Paths under _INTERRUPT_InterruptManager in BANK4

    None.

Call Graph Tables:

 ---------------------------------------------------------------------------------
 (Depth) Function   	        Calls       Base Space   Used Autos Params    Refs
 ---------------------------------------------------------------------------------
 (0) _main                                                 0     0      0     774
                _ADC_StartConversion
                          _Delay_Xms
         _IOCBF5_SetInterruptHandler
                  _SYSTEM_Initialize
 ---------------------------------------------------------------------------------
 (1) _SYSTEM_Initialize                                    0     0      0     258
                     _ADC_Initialize
                     _FVR_Initialize
              _OSCILLATOR_Initialize
             _PIN_MANAGER_Initialize
                    _TMR2_Initialize
                     _WDT_Initialize
 ---------------------------------------------------------------------------------
 (2) _WDT_Initialize                                       0     0      0       0
 ---------------------------------------------------------------------------------
 (2) _TMR2_Initialize                                      0     0      0      86
           _TMR2_SetInterruptHandler
 ---------------------------------------------------------------------------------
 (3) _TMR2_SetInterruptHandler                             2     0      2      86
                                             21 BANK0      2     0      2
 ---------------------------------------------------------------------------------
 (2) _PIN_MANAGER_Initialize                               0     0      0     150
         _IOCBF5_SetInterruptHandler
 ---------------------------------------------------------------------------------
 (3) _IOCBF5_SetInterruptHandler                           2     0      2     150
                                             21 BANK0      2     0      2
 ---------------------------------------------------------------------------------
 (2) _OSCILLATOR_Initialize                                0     0      0       0
 ---------------------------------------------------------------------------------
 (2) _FVR_Initialize                                       0     0      0       0
 ---------------------------------------------------------------------------------
 (2) _ADC_Initialize                                       0     0      0      22
                  _ADC_SelectChannel
 ---------------------------------------------------------------------------------
 (3) _ADC_SelectChannel                                    2     2      0      22
                                             21 BANK0      2     2      0
 ---------------------------------------------------------------------------------
 (1) _Delay_Xms                                            9     5      4     366
                                             21 BANK0      9     5      4
 ---------------------------------------------------------------------------------
 (1) _ADC_StartConversion                                  0     0      0       0
 ---------------------------------------------------------------------------------
 Estimated maximum stack depth 3
 ---------------------------------------------------------------------------------
 (Depth) Function   	        Calls       Base Space   Used Autos Params    Refs
 ---------------------------------------------------------------------------------
 (4) _INTERRUPT_InterruptManager                           0     0      0    5663
                            _ADC_ISR
                    _PIN_MANAGER_IOC
                           _TMR2_ISR
 ---------------------------------------------------------------------------------
 (5) _TMR2_ISR                                             0     0      0       0
                      _TMR2_CallBack
 ---------------------------------------------------------------------------------
 (6) _TMR2_CallBack                                        0     0      0       0
                   Absolute function *
       _TMR2_DefaultInterruptHandler *
 ---------------------------------------------------------------------------------
 (7) _TMR2_DefaultInterruptHandler                         0     0      0       0
 ---------------------------------------------------------------------------------
 (5) _PIN_MANAGER_IOC                                      0     0      0      67
                         _IOCBF5_ISR
 ---------------------------------------------------------------------------------
 (6) _IOCBF5_ISR                                           0     0      0      67
                   Absolute function *
     _IOCBF5_DefaultInterruptHandler *
                             _VT_ISR *
 ---------------------------------------------------------------------------------
 (7) _VT_ISR                                              14    14      0      67
                                              0 COMMON    14    14      0
                      _POWER_LED_OFF
                       _POWER_LED_ON
                   _POWER_LED_TOGGLE
 ---------------------------------------------------------------------------------
 (8) _POWER_LED_TOGGLE                                     0     0      0       0
                      _POWER_LED_OFF
                       _POWER_LED_ON
 ---------------------------------------------------------------------------------
 (9) _POWER_LED_ON                                         0     0      0       0
 ---------------------------------------------------------------------------------
 (9) _POWER_LED_OFF                                        0     0      0       0
 ---------------------------------------------------------------------------------
 (7) _IOCBF5_DefaultInterruptHandler                       0     0      0       0
 ---------------------------------------------------------------------------------
 (7) Absolute function(Fake)                               0     0      0       0
 ---------------------------------------------------------------------------------
 (5) _ADC_ISR                                              0     0      0    5596
                   _ADC_CompareValue
 ---------------------------------------------------------------------------------
 (6) _ADC_CompareValue                                     5     5      0    5596
                                             16 BANK0      5     5      0
            _ADC_GetConversionResult
                             ___ftge
                            ___ftmul
                           ___lwtoft
 ---------------------------------------------------------------------------------
 (7) ___lwtoft                                             4     1      3    2384
                                              8 COMMON     4     1      3
                           ___ftpack
 ---------------------------------------------------------------------------------
 (7) ___ftmul                                             16    10      6    2752
                                              0 BANK0     16    10      6
                           ___ftpack
                           ___lwtoft (ARG)
 ---------------------------------------------------------------------------------
 (8) ___ftpack                                             8     3      5    2298
                                              0 COMMON     8     3      5
 ---------------------------------------------------------------------------------
 (7) ___ftge                                               6     0      6     392
                                              0 COMMON     6     0      6
 ---------------------------------------------------------------------------------
 (7) _ADC_GetConversionResult                              2     0      2       0
                                              0 COMMON     2     0      2
 ---------------------------------------------------------------------------------
 Estimated maximum stack depth 9
 ---------------------------------------------------------------------------------

 Call Graph Graphs:

 _main (ROOT)
   _ADC_StartConversion
   _Delay_Xms
   _IOCBF5_SetInterruptHandler
   _SYSTEM_Initialize
     _ADC_Initialize
       _ADC_SelectChannel
     _FVR_Initialize
     _OSCILLATOR_Initialize
     _PIN_MANAGER_Initialize
       _IOCBF5_SetInterruptHandler
     _TMR2_Initialize
       _TMR2_SetInterruptHandler
     _WDT_Initialize

 _INTERRUPT_InterruptManager (ROOT)
   _ADC_ISR
     _ADC_CompareValue
       _ADC_GetConversionResult
       ___ftge
       ___ftmul
         ___ftpack
         ___lwtoft (ARG)
           ___ftpack
       ___lwtoft
         ___ftpack
   _PIN_MANAGER_IOC
     _IOCBF5_ISR
       Absolute function(Fake) *
       _IOCBF5_DefaultInterruptHandler *
       _VT_ISR *
         _POWER_LED_OFF
         _POWER_LED_ON
         _POWER_LED_TOGGLE
           _POWER_LED_OFF
           _POWER_LED_ON
   _TMR2_ISR
     _TMR2_CallBack
       Absolute function(Fake) *
       _TMR2_DefaultInterruptHandler *

 Address spaces:
Name               Size   Autos  Total    Cost      Usage
BIGRAM             170      0       0       0        0.0%
EEDATA             100      0       0       0        0.0%
NULL                 0      0       0       0        0.0%
CODE                 0      0       0       0        0.0%
BITCOMMON            E      0       0       1        0.0%
BITSFR0              0      0       0       1        0.0%
SFR0                 0      0       0       1        0.0%
COMMON               E      E       E       2      100.0%
BITSFR1              0      0       0       2        0.0%
SFR1                 0      0       0       2        0.0%
BITSFR2              0      0       0       3        0.0%
SFR2                 0      0       0       3        0.0%
STACK                0      0       0       3        0.0%
BITSFR3              0      0       0       4        0.0%
SFR3                 0      0       0       4        0.0%
ABS                  0      0      39       4        0.0%
BITBANK0            50      0       0       5        0.0%
BITSFR4              0      0       0       5        0.0%
SFR4                 0      0       0       5        0.0%
BANK0               50     1E      2B       6       53.8%
BITSFR5              0      0       0       6        0.0%
SFR5                 0      0       0       6        0.0%
BITBANK1            50      0       0       7        0.0%
BITSFR6              0      0       0       7        0.0%
SFR6                 0      0       0       7        0.0%
BANK1               50      0       0       8        0.0%
BITSFR7              0      0       0       8        0.0%
SFR7                 0      0       0       8        0.0%
BITBANK2            50      0       0       9        0.0%
BITSFR8              0      0       0       9        0.0%
SFR8                 0      0       0       9        0.0%
BANK2               50      0       0      10        0.0%
BITSFR9              0      0       0      10        0.0%
SFR9                 0      0       0      10        0.0%
BITBANK3            50      0       0      11        0.0%
BITSFR10             0      0       0      11        0.0%
SFR10                0      0       0      11        0.0%
BANK3               50      0       0      12        0.0%
BITSFR11             0      0       0      12        0.0%
SFR11                0      0       0      12        0.0%
BITBANK4            30      0       0      13        0.0%
BITSFR12             0      0       0      13        0.0%
SFR12                0      0       0      13        0.0%
BANK4               30      0       0      14        0.0%
BITSFR13             0      0       0      14        0.0%
SFR13                0      0       0      14        0.0%
BITSFR14             0      0       0      15        0.0%
SFR14                0      0       0      15        0.0%
DATA                 0      0      39      15        0.0%
BITSFR15             0      0       0      16        0.0%
SFR15                0      0       0      16        0.0%
BITSFR16             0      0       0      17        0.0%
SFR16                0      0       0      17        0.0%
BITSFR17             0      0       0      18        0.0%
SFR17                0      0       0      18        0.0%
BITSFR18             0      0       0      19        0.0%
SFR18                0      0       0      19        0.0%
BITSFR19             0      0       0      20        0.0%
SFR19                0      0       0      20        0.0%
BITSFR20             0      0       0      21        0.0%
SFR20                0      0       0      21        0.0%
BITSFR21             0      0       0      22        0.0%
SFR21                0      0       0      22        0.0%
BITSFR22             0      0       0      23        0.0%
SFR22                0      0       0      23        0.0%
BITSFR23             0      0       0      24        0.0%
SFR23                0      0       0      24        0.0%
BITSFR24             0      0       0      25        0.0%
SFR24                0      0       0      25        0.0%
BITSFR25             0      0       0      26        0.0%
SFR25                0      0       0      26        0.0%
BITSFR26             0      0       0      27        0.0%
SFR26                0      0       0      27        0.0%
BITSFR27             0      0       0      28        0.0%
SFR27                0      0       0      28        0.0%
BITSFR28             0      0       0      29        0.0%
SFR28                0      0       0      29        0.0%
BITSFR29             0      0       0      30        0.0%
SFR29                0      0       0      30        0.0%
BITSFR30             0      0       0      31        0.0%
SFR30                0      0       0      31        0.0%
BITSFR31             0      0       0      32        0.0%
SFR31                0      0       0      32        0.0%


Microchip Technology PIC Macro Assembler V2.10 build 88905656 
Symbol Table                                                                                   Wed Aug 28 15:47:04 2019

          __end_of_TMR2_SetInterruptHandler 0354                                 __CFG_CP$OFF 0000  
                    __end_of_FVR_Initialize 037E                                 __CFG_LVP$ON 0000  
                                       l256 027A                                         _PR2 001B  
                              __CFG_CPD$OFF 0000                                         u843 028C  
                                       u927 028F                            _ADC_CompareValue 01AE  
                           __end_of_ADC_ISR 0376                             _TMR2_Initialize 02F7  
                              __CFG_BORV$LO 0000                                         wreg 0009  
                              __CFG_IESO$ON 0000                                        l1503 0197  
                                      _LATA 010C                                        _LATB 010D  
                                      _TMR2 001A                                        _WPUA 020C  
                                      _WPUB 020D                                __CFG_WRT$OFF 0000  
                             __CFG_FCMEN$ON 0000                                        _main 0152  
                              ___ftpack@arg 0070                                ___ftpack@exp 0073  
                                      btemp 007E                               __CFG_BOREN$ON 0000  
                                      start 0023                              _BlinkCounterOn 0049  
                             __CFG_MCLRE$ON 0000                                ___ftmul@cntr 002E  
                              ___ftmul@sign 002F                             ?_FVR_Initialize 0070  
            __size_of_OSCILLATOR_Initialize 0007               __end_of_OSCILLATOR_Initialize 034E  
                       __size_of_IOCBF5_ISR 000D                                       ?_main 0070  
                             __CFG_WDTE$OFF 0000                             __end_of___ftmul 00EE  
                                     _T2CON 001C                                       i1l131 000D  
                                     i1l134 0019                                       i1l139 0021  
                                     i1l277 023A                                       i1l279 023F  
                                     i1l681 0133                                       i1l682 013B  
                                     i1l674 0120                                       u50_25 0102  
                                     u52_25 011B                                       u54_25 012C  
                                     u71_25 00AB                                       u72_25 00B1  
                                     _TRISA 008C                                       _TRISB 008D  
                                     u58_25 0142                                       u75_25 00C7  
                                     u76_25 00CD                                       u68_25 0073  
                                     u69_25 0083            __size_of_ADC_GetConversionResult 0006  
                          __end_of_TMR2_ISR 02D2                     __end_of_PIN_MANAGER_IOC 0360  
                            _WDT_Initialize 0376                               ___ftpack@sign 0074  
                                     pclath 000A                                       status 0003  
                                     wtemp0 007E                             _BlinkCounterOff 0048  
                           __initialization 0025                                __end_of_main 01AE  
                   __end_of_TMR2_Initialize 0309                                   ??_ADC_ISR 007C  
               ?_INTERRUPT_InterruptManager 0070                          __size_of_Delay_Xms 002B  
                  _TMR2_SetInterruptHandler 034E                                      ??_main 003E  
                            __CFG_PLLEN$OFF 0000                      __end_of_WDT_Initialize 037A  
                                    _ADCON0 009D                                      _ADCON1 009E  
              ??_IOCBF5_SetInterruptHandler 0037                                      _ADRESH 009C  
                                    _ADRESL 009B                                      _ANSELA 018C  
                                    _ANSELB 018D                            __end_of___ftpack 0152  
                                    _BORCON 0116                                      i1l1301 0253  
                                    i1l1305 0262                                      i1l1241 0344  
                                    i1l1251 00FD                                      i1l1323 0051  
                                    i1l1253 0107                                      i1l1341 00A2  
                                    i1l1263 0131                                      i1l1255 010C  
                                    i1l1247 00F6                                      i1l1407 01EC  
                                    i1l1265 0125                                      i1l1353 00BE  
                                    i1l1345 00AA                                      i1l1329 0067  
                                    i1l1357 00C6                                      i1l1447 0323  
                                    _FVRCON 0117                            __end_of___lwtoft 02E5  
                                    _OSCCON 0099                                      _WDTCON 0097  
                                    _VT_ISR 0201                              __CFG_PWRTE$OFF 0000  
                                    ___ftge 0244                              __CFG_STVREN$ON 0000  
                                 ??___ftmul 0026         __size_of_IOCBF5_SetInterruptHandler 0006  
                     ___ftmul@f3_as_product 002B                _TMR4_INTERRUPT_TICKER_FACTOR 004A  
                           ?_WDT_Initialize 0070  IOCBF5_SetInterruptHandler@InterruptHandler 0035  
  TMR2_SetInterruptHandler@InterruptHandler 0035                            ?_PIN_MANAGER_IOC 0070  
                              ??_IOCBF5_ISR 007E                       __end_of_POWER_LED_OFF 0371  
                         _SYSTEM_Initialize 02E5                           __end_of_Delay_Xms 029C  
                   __end_of__initialization 0036                       __end_of_TMR2_CallBack 033D  
                                ___ftge@ff1 0070                                  ___ftge@ff2 0073  
                        ?_SYSTEM_Initialize 0070                           ?_POWER_LED_TOGGLE 0070  
                  __end_of_ADC_CompareValue 0201                          ??_POWER_LED_TOGGLE 0070  
                              _BlinkCounter 0040                                  ___ftmul@f1 0020  
                                ___ftmul@f2 0023                              _TurnOffTimeout 0384  
              __size_of_ADC_StartConversion 0003                              __pcstackCOMMON 0070  
                              __pidataBANK0 037E                         ??_SYSTEM_Initialize 0037  
                                 ?_TMR2_ISR 0070                            ?_TMR2_Initialize 0070  
                                ___lwtoft@c 0078                          __end_of_IOCBF5_ISR 0326  
                   _ADC_GetConversionResult 0366                              _OPTION_REGbits 0095  
                 __end_of_SYSTEM_Initialize 02F7                                  __pbssBANK0 003E  
                                   ?_VT_ISR 0070                      __end_of_TurnOffTimeout 0385  
                          ??_FVR_Initialize 0035                                  __pmaintext 0152  
                                   ?___ftge 0070                                  ??_TMR2_ISR 0070  
                                __pintentry 0004                                     _ADC_ISR 0371  
                                 ?___ftpack 0070                                     _APFCON0 011D  
                                   _APFCON1 011E                     __size_of_ADC_Initialize 000C  
                                 ?___lwtoft 0078                              Delay_Xms@delay 0035  
        __end_of_IOCBF5_SetInterruptHandler 035A                  _IOCBF5_SetInterruptHandler 0354  
                                   _OSCTUNE 0098                               ?_POWER_LED_ON 0070  
                           __size_of_VT_ISR 0043                  ??_TMR2_SetInterruptHandler 0037  
                           __size_of___ftge 002D                                     ___ftmul 003A  
                 ??_ADC_GetConversionResult 0072                                  ??___ftpack 0075  
                                   __ptext1 02E5                                     __ptext2 0376  
                                   __ptext3 02F7                                     __ptext4 034E  
                                   __ptext5 029C                                     __ptext6 0354  
                                   __ptext7 0347                                     __ptext8 037A  
                                   __ptext9 0326                                  ??___lwtoft 007B  
                     _OSCILLATOR_Initialize 0347                                   _T2CONbits 001C  
                  ??_PIN_MANAGER_Initialize 0037                                   _IOCBFbits 0396  
                                 _IOCBNbits 0395                                   _IOCBPbits 0394  
                __size_of_SYSTEM_Initialize 0012                        end_of_initialization 0036  
                            ??_POWER_LED_ON 0070                            ??_WDT_Initialize 0035  
                            _TimeoutCounter 0041                                   _PORTAbits 000C  
                          __CFG_FOSC$INTOSC 0000                         _ADC_StartConversion 0381  
                                 _Delay_Xms 0271                           ?_ADC_CompareValue 0070  
                            __end_of_VT_ISR 0244                                 ___ftmul@exp 002A  
                      ?_ADC_StartConversion 0070                          ??_ADC_CompareValue 007C  
      __end_of_TMR2_DefaultInterruptHandler 0386       __size_of_TMR2_DefaultInterruptHandler 0001  
              _TMR2_DefaultInterruptHandler 0385                              __end_of___ftge 0271  
                         __size_of_TMR2_ISR 0013                              _ADC_Initialize 0326  
                    ?_OSCILLATOR_Initialize 0070                   __size_of_POWER_LED_TOGGLE 000A  
                       start_initialization 0025             __size_of_PIN_MANAGER_Initialize 0023  
                                  ??_VT_ISR 0070                    __size_of_PIN_MANAGER_IOC 0006  
                                ?_Delay_Xms 0035                       ??_ADC_StartConversion 0035  
                                  ??___ftge 0076                      __end_of_ADC_Initialize 0332  
                               __pdataBANK0 0048                                    ?_ADC_ISR 0070  
             ?_TMR2_DefaultInterruptHandler 0070                      __size_of_POWER_LED_OFF 0005  
                      __end_of_POWER_LED_ON 0366                           __size_of___ftpack 0064  
                    __size_of_TMR2_CallBack 000B                                   ___latbits 0001  
                         __size_of___lwtoft 0013                               __pcstackBANK0 0020  
                  __size_of_TMR2_Initialize 0012                 ?_IOCBF5_SetInterruptHandler 0035  
                                 __pnvBANK0 0044                      _PIN_MANAGER_Initialize 029C  
                         _ADC_SelectChannel 0309                                    ?___ftmul 0020  
                           ?_ADC_Initialize 0070                          ?_ADC_SelectChannel 0070  
              ??_INTERRUPT_InterruptManager 007E            ??_IOCBF5_DefaultInterruptHandler 0070  
           ?_IOCBF5_DefaultInterruptHandler 0070                         ??_ADC_SelectChannel 0035  
                             _TMR4_INT_FLAG 0043                               _POWER_LED_OFF 036C  
                     ADC_CompareValue@value 0032                                    _LATBbits 010D  
                             _TMR2_CallBack 0332                                    _PIE1bits 0091  
                               ??_Delay_Xms 0039                   __end_of_ADC_SelectChannel 0319  
       __size_of_INTERRUPT_InterruptManager 001F                                    _PIR1bits 0011  
                                  _TMR2_ISR 02BF                           ??_PIN_MANAGER_IOC 007E  
                          __size_of_ADC_ISR 0005                                  _ADCON0bits 009D  
                          _POWER_LED_TOGGLE 033D                    ADC_CompareValue@valueNum 0030  
                  ADC_SelectChannel@channel 0036                     __size_of_FVR_Initialize 0004  
            ??_TMR2_DefaultInterruptHandler 0070           __size_of_TMR2_SetInterruptHandler 0006  
                 ?_TMR2_SetInterruptHandler 0035                                    _LedState 0042  
                            ?_POWER_LED_OFF 0070                           ??_TMR2_Initialize 0037  
                            ?_TMR2_CallBack 0070                    ?_ADC_GetConversionResult 0070  
                   ??_OSCILLATOR_Initialize 0035                       __size_of_POWER_LED_ON 0006  
                          __size_of___ftmul 00B4                                    ___ftpack 00EE  
                                  ___lwtoft 02D2                   __size_of_ADC_CompareValue 0053  
                                  __ptext10 0309                                    __ptext11 0271  
                                  __ptext20 0201                                    __ptext12 0381  
                                  __ptext21 033D                                    __ptext30 0366  
                                  __ptext22 0360                                    __ptext14 02BF  
                                  __ptext23 036C                                    __ptext15 0332  
                                  __ptext24 0371                                    __ptext16 0385  
                                  __ptext25 01AE                                    __ptext17 035A  
                                  __ptext26 02D2                                    __ptext18 0319  
                                  __ptext27 003A                                    __ptext19 0386  
                                  __ptext28 00EE                                    __ptext29 0244  
                                _IOCBF5_ISR 0319                               __size_of_main 005C  
                              _POWER_LED_ON 0360                  __size_of_ADC_SelectChannel 0010  
                                  int$flags 007E          __end_of_INTERRUPT_InterruptManager 0023  
                _INTERRUPT_InterruptManager 0004                                  _INTCONbits 000B  
                                Delay_Xms@i 003A                                  VT_ISR@code 007C  
                                _FVRCONbits 0117                             ??_POWER_LED_OFF 0070  
                   __size_of_WDT_Initialize 0004                                    intlevel1 0000  
                           ??_TMR2_CallBack 0070                 __end_of_ADC_StartConversion 0384  
                   ?_PIN_MANAGER_Initialize 0070             __end_of_ADC_GetConversionResult 036C  
                         __CFG_CLKOUTEN$OFF 0000                            ??_ADC_Initialize 0037  
                             __pstringtext1 0384                              _FVR_Initialize 037A  
                     TMR2_ISR@CountCallBack 003E                                 ?_IOCBF5_ISR 0070  
            __end_of_PIN_MANAGER_Initialize 02BF      __end_of_IOCBF5_DefaultInterruptHandler 0387  
   __size_of_IOCBF5_DefaultInterruptHandler 0001              _IOCBF5_DefaultInterruptHandler 0386  
                  __end_of_POWER_LED_TOGGLE 0347                             _PIN_MANAGER_IOC 035A  
                     _TMR2_InterruptHandler 0046                     _IOCBF5_InterruptHandler 0044  
